
updater.elf:     file format elf32-avr

SYMBOL TABLE:
00800100 l    d  .data	00000000 .data
00000000 l    d  .text	00000000 .text
00000000 l    d  .comment	00000000 .comment
00000000 l    d  .note.gnu.avr.deviceinfo	00000000 .note.gnu.avr.deviceinfo
00000000 l    d  .debug_aranges	00000000 .debug_aranges
00000000 l    d  .debug_info	00000000 .debug_info
00000000 l    d  .debug_abbrev	00000000 .debug_abbrev
00000000 l    d  .debug_line	00000000 .debug_line
00000000 l    d  .debug_frame	00000000 .debug_frame
00000000 l    d  .debug_str	00000000 .debug_str
00000000 l    d  .debug_line_str	00000000 .debug_line_str
00000000 l    d  .debug_loclists	00000000 .debug_loclists
00000000 l    d  .debug_macro	00000000 .debug_macro
00000000 l    d  .debug_rnglists	00000000 .debug_rnglists
00000000 l    df *ABS*	00000000 updater.c
0000003e l       *ABS*	00000000 __SP_H__
0000003d l       *ABS*	00000000 __SP_L__
0000003f l       *ABS*	00000000 __SREG__
00000000 l       *ABS*	00000000 __tmp_reg__
00000001 l       *ABS*	00000000 __zero_reg__
00000090 l       .text	00000000 .Loc.0
00000090 l       .text	00000000 L0
00000090 l       .text	00000000 .Loc.1
00000098 l       .text	00000000 .Loc.2
000000b0 l       .text	00000000 loop23
000000b6 l       .text	00000000 .Loc.3
000000be l       .text	00000000 L0
000000be l       .text	00000000 .Loc.4
000000be l       .text	00000000 L0
000000be l       .text	00000000 .Loc.5
000000c6 l       .text	00000000 .Loc.6
000000de l       .text	00000000 loop54
000000e4 l       .text	00000000 .Loc.7
000000ec l       .text	00000000 L0
000000ec l       .text	00000000 .Loc.8
000000ec l       .text	00000000 L0
000000ec l       .text	00000000 .Loc.9
00000100 l       .text	00000000 .Loc.10
00000100 l       .text	00000000 .Loc.11
0000010a l       .text	00000000 .Loc.12
0000010a l       .text	00000000 .Loc.13
0000010a l       .text	00000000 .Loc.14
0000010e l       .text	00000000 .Loc.15
00000110 l       .text	00000000 .Loc.16
00000112 l       .text	00000000 .Loc.17
00000114 l       .text	00000000 .Loc.18
00000114 l       .text	00000000 .Loc.19
0000011a l       .text	00000000 .Loc.20
00000122 l       .text	00000000 .Loc.21
00000124 l       .text	00000000 L0
00000124 l       .text	00000000 .Loc.22
00000124 l       .text	00000000 L0
00000124 l       .text	00000000 .Loc.23
0000014e l       .text	00000000 .Loc.24
0000014e l       .text	00000000 .Loc.25
0000015a l       .text	00000000 .Loc.26
0000015a l       .text	00000000 .Loc.27
00000160 l       .text	00000000 .Loc.28
00000160 l       .text	00000000 .Loc.29
00000160 l       .text	00000000 .Loc.30
00000164 l       .text	00000000 .Loc.31
00000164 l       .text	00000000 .Loc.32
00000164 l       .text	00000000 .Loc.33
00000164 l       .text	00000000 .Loc.34
00000164 l       .text	00000000 .Loc.35
00000164 l       .text	00000000 .Loc.36
00000166 l       .text	00000000 .Loc.37
00000168 l       .text	00000000 .Loc.38
0000016a l       .text	00000000 .Loc.39
0000016e l       .text	00000000 .Loc.40
00000170 l       .text	00000000 .Loc.41
00000172 l       .text	00000000 .Loc.42
00000178 l       .text	00000000 .Loc.43
00000178 l       .text	00000000 .Loc.44
0000017c l       .text	00000000 L0
0000017e l       .text	00000000 .Loc.45
0000017e l       .text	00000000 .Loc.46
00000182 l       .text	00000000 .Loc.47
00000190 l       .text	00000000 .Loc.48
00000198 l       .text	00000000 .Loc.49
0000019e l       .text	00000000 .Loc.50
000001ac l       .text	00000000 .Loc.51
000001b8 l       .text	00000000 .Loc.52
000001be l       .text	00000000 .Loc.53
000001c6 l       .text	00000000 .Loc.54
000001d2 l       .text	00000000 .Loc.55
000001d4 l       .text	00000000 .Loc.56
000001d4 l       .text	00000000 .Loc.57
000001d4 l       .text	00000000 .Loc.58
000001d4 l       .text	00000000 .Loc.59
000001da l       .text	00000000 .Loc.60
000001da l       .text	00000000 .Loc.61
000001da l       .text	00000000 .Loc.62
000001da l       .text	00000000 .Loc.63
000001de l       .text	00000000 .Loc.64
000001e4 l       .text	00000000 .Loc.65
000001e8 l       .text	00000000 .Loc.66
000001e8 l       .text	00000000 .Loc.67
000001e8 l       .text	00000000 .Loc.68
000001ec l       .text	00000000 .Loc.69
000001f0 l       .text	00000000 .Loc.70
000001f6 l       .text	00000000 .Loc.71
000001fa l       .text	00000000 .Loc.72
000001fa l       .text	00000000 .Loc.73
000001fc l       .text	00000000 .Loc.74
00000202 l       .text	00000000 .Loc.75
00000214 l       .text	00000000 .Loc.76
00000214 l       .text	00000000 .Loc.77
0000021e l       .text	00000000 .Loc.78
00000224 l       .text	00000000 .Loc.79
00000226 l       .text	00000000 .Loc.80
0000022a l       .text	00000000 .Loc.81
0000022a l       .text	00000000 .Loc.82
0000022c l       .text	00000000 L0
00000ac8 l       .text	00000000 .Loc.83
00000ac8 l       .text	00000000 L0
00000ada l       .text	00000000 .Loc.84
00000ada l       .text	00000000 .Loc.85
00000ada l       .text	00000000 .Loc.86
00000ada l       .text	00000000 .Loc.87
00000adc l       .text	00000000 .Loc.88
00000adc l       .text	00000000 .Loc.89
00000adc l       .text	00000000 .Loc.90
00000adc l       .text	00000000 .Loc.91
00000adc l       .text	00000000 .Loc.92
00000af2 l       .text	00000000 .Loc.93
00000af4 l       .text	00000000 .Loc.94
00000af4 l       .text	00000000 .Loc.95
00000af4 l       .text	00000000 .Loc.96
00000af4 l       .text	00000000 .Loc.97
00000af4 l       .text	00000000 .Loc.98
00000af4 l       .text	00000000 .Loc.99
00000afc l       .text	00000000 .Loc.100
00000afc l       .text	00000000 .Loc.101
00000b02 l       .text	00000000 .Loc.102
00000b02 l       .text	00000000 .Loc.103
00000b02 l       .text	00000000 .Loc.104
00000b02 l       .text	00000000 .Loc.105
00000b02 l       .text	00000000 .Loc.106
00000b02 l       .text	00000000 .Loc.107
00000b0a l       .text	00000000 .Loc.108
00000b0a l       .text	00000000 .Loc.109
00000b0a l       .text	00000000 .Loc.110
00000b0a l       .text	00000000 .Loc.111
00000b10 l       .text	00000000 .Loc.112
00000b14 l       .text	00000000 .Loc.113
00000b1a l       .text	00000000 .Loc.114
00000b22 l       .text	00000000 .Loc.115
00000b36 l       .text	00000000 .Loc.116
00000b36 l       .text	00000000 .Loc.117
00000b36 l       .text	00000000 .Loc.118
00000b3c l       .text	00000000 .Loc.119
00000b3c l       .text	00000000 .Loc.120
00000b40 l       .text	00000000 .Loc.121
00000b40 l       .text	00000000 .Loc.122
00000b40 l       .text	00000000 .Loc.123
00000b40 l       .text	00000000 .Loc.124
00000b46 l       .text	00000000 .Loc.125
00000b46 l       .text	00000000 .Loc.126
00000b4a l       .text	00000000 .Loc.127
00000b4a l       .text	00000000 .Loc.128
00000b4a l       .text	00000000 .Loc.129
00000b4a l       .text	00000000 .Loc.130
00000b50 l       .text	00000000 .Loc.131
00000b50 l       .text	00000000 .Loc.132
00000b54 l       .text	00000000 .Loc.133
00000b54 l       .text	00000000 .Loc.134
00000b54 l       .text	00000000 .Loc.135
00000b54 l       .text	00000000 .Loc.136
00000b60 l       .text	00000000 .Loc.137
00000b60 l       .text	00000000 .Loc.138
00000b60 l       .text	00000000 .Loc.139
00000b60 l       .text	00000000 .Loc.140
00000b60 l       .text	00000000 .Loc.141
00000b60 l       .text	00000000 .Loc.142
00000b60 l       .text	00000000 .Loc.143
00000b66 l       .text	00000000 .Loc.144
00000b6e l       .text	00000000 .Loc.145
00000b72 l       .text	00000000 .Loc.146
00000b72 l       .text	00000000 .Loc.147
00000b72 l       .text	00000000 .Loc.148
00000b8a l       .text	00000000 .Loc.149
00000b8a l       .text	00000000 .Loc.150
00000b94 l       .text	00000000 .Loc.151
00000bac l       .text	00000000 .Loc.152
00000bb8 l       .text	00000000 .Loc.153
00000bb8 l       .text	00000000 .Loc.154
00000bc8 l       .text	00000000 .Loc.155
00000bd8 l       .text	00000000 .Loc.156
00000be8 l       .text	00000000 .Loc.157
00000be8 l       .text	00000000 .Loc.158
00000bf2 l       .text	00000000 .Loc.159
00000c0a l       .text	00000000 .Loc.160
00000c12 l       .text	00000000 .Loc.161
00000c1e l       .text	00000000 .Loc.162
00000c1e l       .text	00000000 .Loc.163
00000c26 l       .text	00000000 .Loc.164
00000c30 l       .text	00000000 .Loc.165
00000c3c l       .text	00000000 .Loc.166
00000c48 l       .text	00000000 .Loc.167
00000c58 l       .text	00000000 .Loc.168
00000c5e l       .text	00000000 .Loc.169
00000c74 l       .text	00000000 L0
0000022c l       .text	00000000 L0
00000c74 l       .text	00000000 L0
00000000 l       .debug_frame	00000000 L0
0000010a l       .text	00000000 .L4
0000015a l       .text	00000000 .L6
000001d4 l       .text	00000000 .L10
00000226 l       .text	00000000 .L17
00000190 l       .text	00000000 .L12
00000202 l       .text	00000000 .L14
000001e8 l       .text	00000000 .L8
000001fa l       .text	00000000 .L9
00000172 l       .text	00000000 .L7
00000198 l       .text	00000000 .L13
000001ac l       .text	00000000 .L5
00000b50 l       .text	00000000 .L22
00000b36 l       .text	00000000 .L25
00000b14 l       .text	00000000 .L23
00000b60 l       .text	00000000 .L24
00000bac l       .text	00000000 .L26
00000c30 l       .text	00000000 .L27
00000c12 l       .text	00000000 .L28
00000b22 l       .text	00000000 .L30
000005a2 l       .debug_abbrev	00000000 .Ldebug_abbrev0
00000033 l       .debug_rnglists	00000000 .LLRL37
0000001d l       .debug_line	00000000 .Ldebug_line0
00000000 l       .debug_macro	00000000 .Ldebug_macro0
00000ac8 l       .text	00000000 .LFB20
00000c74 l       .text	00000000 .LFE20
00000020 l       .debug_loclists	00000000 .LLST22
0000000c l       .debug_loclists	00000000 .LVUS22
0000000c l       .debug_rnglists	00000000 .LLRL23
0000008c l       .debug_loclists	00000000 .LLST24
00000088 l       .debug_loclists	00000000 .LVUS24
000000aa l       .debug_loclists	00000000 .LLST25
000000a6 l       .debug_loclists	00000000 .LVUS25
0000001b l       .debug_rnglists	00000000 .LLRL26
000000c8 l       .debug_loclists	00000000 .LLST27
000000c4 l       .debug_loclists	00000000 .LVUS27
000000e6 l       .debug_loclists	00000000 .LLST28
000000e2 l       .debug_loclists	00000000 .LVUS28
00000027 l       .debug_rnglists	00000000 .LLRL29
00000104 l       .debug_loclists	00000000 .LLST30
00000100 l       .debug_loclists	00000000 .LVUS30
00000120 l       .debug_loclists	00000000 .LLST31
0000011c l       .debug_loclists	00000000 .LVUS31
00000adc l       .text	00000000 .LBI16
00000adc l       .text	00000000 .LBB16
00000af2 l       .text	00000000 .LBE16
00000adc l       .text	00000000 .LBB17
00000af2 l       .text	00000000 .LBE17
00000b60 l       .text	00000000 .LBI25
00000b60 l       .text	00000000 .LBB25
00000b72 l       .text	00000000 .LBE25
0000013c l       .debug_loclists	00000000 .LLST32
0000013a l       .debug_loclists	00000000 .LVUS32
0000014b l       .debug_loclists	00000000 .LLST33
00000147 l       .debug_loclists	00000000 .LVUS33
00000167 l       .debug_loclists	00000000 .LLST34
00000165 l       .debug_loclists	00000000 .LVUS34
0000017d l       .debug_loclists	00000000 .LLST35
0000017b l       .debug_loclists	00000000 .LVUS35
0000018e l       .debug_loclists	00000000 .LLST36
00000188 l       .debug_loclists	00000000 .LVUS36
00000b72 l       .text	00000000 .LVL55
00000b8a l       .text	00000000 .LVL56
00000bb8 l       .text	00000000 .LVL59
00000bd8 l       .text	00000000 .LVL60
00000be8 l       .text	00000000 .LVL61
00000c1e l       .text	00000000 .LVL65
00000c48 l       .text	00000000 .LVL66
00000c58 l       .text	00000000 .LVL67
00000124 l       .text	00000000 .LFB19
0000022c l       .text	00000000 .LFE19
000001bc l       .debug_loclists	00000000 .LLST7
000001b8 l       .debug_loclists	00000000 .LVUS7
000001ed l       .debug_loclists	00000000 .LLST8
000001e1 l       .debug_loclists	00000000 .LVUS8
00000242 l       .debug_loclists	00000000 .LLST9
0000023e l       .debug_loclists	00000000 .LVUS9
00000269 l       .debug_loclists	00000000 .LLST10
00000261 l       .debug_loclists	00000000 .LVUS10
000002a6 l       .debug_loclists	00000000 .LLST11
000002a0 l       .debug_loclists	00000000 .LVUS11
000002cd l       .debug_loclists	00000000 .LLST12
000002c9 l       .debug_loclists	00000000 .LVUS12
000002f0 l       .debug_loclists	00000000 .LLST13
000002e8 l       .debug_loclists	00000000 .LVUS13
00000325 l       .debug_loclists	00000000 .LLST14
00000321 l       .debug_loclists	00000000 .LVUS14
00000352 l       .debug_loclists	00000000 .LLST15
0000034c l       .debug_loclists	00000000 .LVUS15
00000392 l       .debug_loclists	00000000 .LLST16
0000038a l       .debug_loclists	00000000 .LVUS16
000003b6 l       .debug_loclists	00000000 .LLST17
000003b0 l       .debug_loclists	00000000 .LVUS17
000003d3 l       .debug_loclists	00000000 .LLST18
000003cd l       .debug_loclists	00000000 .LVUS18
00000407 l       .debug_loclists	00000000 .LLST19
000003fb l       .debug_loclists	00000000 .LVUS19
000001d4 l       .text	00000000 .LBB8
000001da l       .text	00000000 .LBE8
0000044c l       .debug_loclists	00000000 .LLST20
0000044a l       .debug_loclists	00000000 .LVUS20
0000045c l       .debug_loclists	00000000 .LLST21
0000045a l       .debug_loclists	00000000 .LVUS21
00000190 l       .text	00000000 .LVL19
000001ac l       .text	00000000 .LVL21
00000214 l       .text	00000000 .LVL33
000000be l       .text	00000000 .LFB17
000000ec l       .text	00000000 .LFE17
0000046e l       .debug_loclists	00000000 .LLST1
0000046a l       .debug_loclists	00000000 .LVUS1
00000090 l       .text	00000000 .LFB3
000000be l       .text	00000000 .LFE3
0000048c l       .debug_loclists	00000000 .LLST0
00000488 l       .debug_loclists	00000000 .LVUS0
000000ec l       .text	00000000 .LFB18
00000124 l       .text	00000000 .LFE18
000004aa l       .debug_loclists	00000000 .LLST2
000004a6 l       .debug_loclists	00000000 .LVUS2
000004d4 l       .debug_loclists	00000000 .LLST3
000004ce l       .debug_loclists	00000000 .LVUS3
00000500 l       .debug_loclists	00000000 .LLST4
000004fc l       .debug_loclists	00000000 .LVUS4
00000522 l       .debug_loclists	00000000 .LLST5
0000051e l       .debug_loclists	00000000 .LVUS5
00000542 l       .debug_loclists	00000000 .LLST6
0000053c l       .debug_loclists	00000000 .LVUS6
00000114 l       .text	00000000 .LVL9
00000af4 l       .text	00000000 .LVL38
00000b02 l       .text	00000000 .LVL40
00000b0a l       .text	00000000 .LVL41
00000afc l       .text	00000000 .LVL39
00000b60 l       .text	00000000 .LVL52
00000b6e l       .text	00000000 .LVL54
00000124 l       .text	00000000 .LVL12
0000015a l       .text	00000000 .LVL13
00000160 l       .text	00000000 .LVL14
00000164 l       .text	00000000 .LVL15
000001da l       .text	00000000 .LVL27
000001d4 l       .text	00000000 .LVL26
000000be l       .text	00000000 .LVL2
00000090 l       .text	00000000 .LVL0
000000ec l       .text	00000000 .LVL4
0000010a l       .text	00000000 .LVL5
000005f4 l       .debug_info	00000000 .Ldebug_info0
00000090 l       .text	00000000 .Ltext0
0000022c l       .text	00000000 .Letext0
00000af4 l       .text	00000000 .LBB18
00000af4 l       .text	00000000 .LBB19
00000b02 l       .text	00000000 .LBB20
0000017f l       .debug_macro	00000000 .Ldebug_macro2
00000d89 l       .debug_macro	00000000 .Ldebug_macro3
00000d99 l       .debug_macro	00000000 .Ldebug_macro4
00000f62 l       .debug_macro	00000000 .Ldebug_macro5
0000125e l       .debug_macro	00000000 .Ldebug_macro6
000012fc l       .debug_macro	00000000 .Ldebug_macro7
0000270c l       .debug_macro	00000000 .Ldebug_macro8
00002846 l       .debug_macro	00000000 .Ldebug_macro9
00002903 l       .debug_macro	00000000 .Ldebug_macro10
00002937 l       .debug_macro	00000000 .Ldebug_macro11
0000294f l       .debug_macro	00000000 .Ldebug_macro12
000029bb l       .debug_macro	00000000 .Ldebug_macro13
00002ac2 l       .debug_macro	00000000 .Ldebug_macro14
00002ae4 l       .debug_macro	00000000 .Ldebug_macro15
00002b18 l       .debug_macro	00000000 .Ldebug_macro16
00002b28 l       .debug_macro	00000000 .Ldebug_macro17
00002bb8 l       .debug_macro	00000000 .Ldebug_macro18
00002c8a l       .debug_macro	00000000 .Ldebug_macro19
00002d01 l       .debug_macro	00000000 .Ldebug_macro20
00002d69 l       .debug_macro	00000000 .Ldebug_macro21
00002d79 l       .debug_macro	00000000 .Ldebug_macro22
00002de4 l       .debug_macro	00000000 .Ldebug_macro23
00002dfa l       .debug_macro	00000000 .Ldebug_macro24
00000000 l    df *ABS*	00000000 crtatmega328p.o
00000000 l       .debug_abbrev	00000000 .Ldebug_abbrev0
00000000 l       .debug_str	00000000 .Lproducer
00000000 l       .debug_line	00000000 .Ldebug_line0
0000000f l       .debug_str	00000000 .Luint8_t_name
00000017 l       .debug_str	00000000 .Luint16_t_name
00000020 l       .debug_str	00000000 .Lname6
00000029 l       .debug_str	00000000 .Lname7
0000002e l       .debug_str	00000000 .Lname8
00000035 l       .debug_str	00000000 .Lname9
0000003c l       .debug_str	00000000 .Lname10
00000043 l       .debug_str	00000000 .Lname11
00000049 l       .debug_str	00000000 .Lname12
0000004f l       .debug_str	00000000 .Lname13
00000054 l       .debug_str	00000000 .Lname14
00000059 l       .debug_str	00000000 .Lname15
0000005e l       .debug_str	00000000 .Lname16
00000063 l       .debug_str	00000000 .Lname17
00000068 l       .debug_str	00000000 .Lname18
0000006f l       .debug_str	00000000 .Lname19
00000075 l       .debug_str	00000000 .Lname20
0000007c l       .debug_str	00000000 .Lname21
00000083 l       .debug_str	00000000 .Lname22
0000008a l       .debug_str	00000000 .Lname23
00000090 l       .debug_str	00000000 .Lname24
00000096 l       .debug_str	00000000 .Lname25
0000009c l       .debug_str	00000000 .Lname26
000000a1 l       .debug_str	00000000 .Lname27
000000a7 l       .debug_str	00000000 .Lname28
000000ae l       .debug_str	00000000 .Lname29
000000b4 l       .debug_str	00000000 .Lname30
000000bb l       .debug_str	00000000 .Lname31
000000c2 l       .debug_str	00000000 .Lname32
000000c8 l       .debug_str	00000000 .Lname33
000000ce l       .debug_str	00000000 .Lname34
000000d4 l       .debug_str	00000000 .Lname35
000000d9 l       .debug_str	00000000 .Lname36
000000df l       .debug_str	00000000 .Lname37
000000e5 l       .debug_str	00000000 .Lname38
000000e9 l       .debug_str	00000000 .Lname39
000000f0 l       .debug_str	00000000 .Lname40
000000f7 l       .debug_str	00000000 .Lname41
000000fd l       .debug_str	00000000 .Lname42
00000102 l       .debug_str	00000000 .Lname43
00000108 l       .debug_str	00000000 .Lname44
0000010e l       .debug_str	00000000 .Lname45
00000113 l       .debug_str	00000000 .Lname46
00000118 l       .debug_str	00000000 .Lname47
0000011e l       .debug_str	00000000 .Lname48
00000123 l       .debug_str	00000000 .Lname49
00000128 l       .debug_str	00000000 .Lname50
0000012e l       .debug_str	00000000 .Lname51
00000133 l       .debug_str	00000000 .Lname52
00000138 l       .debug_str	00000000 .Lname53
0000013e l       .debug_str	00000000 .Lname54
00000144 l       .debug_str	00000000 .Lname55
0000014a l       .debug_str	00000000 .Lname56
00000151 l       .debug_str	00000000 .Lname57
00000158 l       .debug_str	00000000 .Lname58
0000015f l       .debug_str	00000000 .Lname59
00000165 l       .debug_str	00000000 .Lname60
0000016b l       .debug_str	00000000 .Lname61
00000171 l       .debug_str	00000000 .Lname62
00000177 l       .debug_str	00000000 .Lname63
0000017c l       .debug_str	00000000 .Lname64
00000182 l       .debug_str	00000000 .Lname65
00000189 l       .debug_str	00000000 .Lname66
00000190 l       .debug_str	00000000 .Lname67
00000197 l       .debug_str	00000000 .Lname68
0000019d l       .debug_str	00000000 .Lname69
000001a2 l       .debug_str	00000000 .Lname70
000001a7 l       .debug_str	00000000 .Lname71
000001ac l       .debug_str	00000000 .Lname72
000001b3 l       .debug_str	00000000 .Lname73
000001b7 l       .debug_str	00000000 .Lname74
000001be l       .debug_str	00000000 .Lname75
000001c4 l       .debug_str	00000000 .Lname76
000001c9 l       .debug_str	00000000 .Lname77
000001cc l       .debug_str	00000000 .Lname78
000001d3 l       .debug_str	00000000 .Lname79
000001d9 l       .debug_str	00000000 .Lname80
000001df l       .debug_str	00000000 .Lname81
000001e4 l       .debug_str	00000000 .Lname82
000001eb l       .debug_str	00000000 .Lname83
000001f2 l       .debug_str	00000000 .Lname84
000001f9 l       .debug_str	00000000 .Lname85
000001fe l       .debug_str	00000000 .Lname86
00000203 l       .debug_str	00000000 .Lname87
00000000 l    df *ABS*	00000000 _copy_data.o
00000074 l       .text	00000000 .Loc.0
00000076 l       .text	00000000 .Loc.1
00000078 l       .text	00000000 .Loc.2
0000007a l       .text	00000000 .Loc.3
0000007c l       .text	00000000 .Loc.4
0000007e l       .text	00000000 .Loc.5
00000080 l       .text	00000000 .Loc.6
00000082 l       .text	00000000 .Loc.7
00000084 l       .text	00000000 .Loc.8
00000086 l       .text	00000000 .Loc.9
00000088 l       .text	00000000 .Loc.10
0000008a l       .text	00000000 L0
00000074 l       .text	00000000 L0
0000008a l       .text	00000000 L0
00000084 l       .text	00000000 .L__do_copy_data_start
00000080 l       .text	00000000 .L__do_copy_data_loop
00000000 l    df *ABS*	00000000 memcpy_PF.o
00000ac0 l       .text	00000000 .L_memcpy_PF_start
00000abc l       .text	00000000 .L_memcpy_PF_loop
00000000 l    df *ABS*	00000000 memset.o
00000c7a l       .text	00000000 .L_memset_start
00000c78 l       .text	00000000 .L_memset_loop
00000000 l    df *ABS*	00000000 _exit.o
00000c82 l       .text	00000000 .Loc.0
00000c84 l       .text	00000000 __stop_program
00000c84 l       .text	00000000 .Loc.1
00000c86 l       .text	00000000 L0
00000c82 l       .text	00000000 L0
00000c86 l       .text	00000000 L0
0000008e  w      .text	00000000 __vector_22
0000008e  w      .text	00000000 __vector_1
00800100 g     O .data	00000002 new_firmware
0000ffa0 g       *ABS*	00000000 __DATA_REGION_LENGTH__
00000090 g     F .text	0000002e do_spm
00000ab6 g     F .text	00000012 memcpy_PF
00000068 g       .text	00000000 __trampolines_start
00000c86 g       .text	00000000 _etext
0000008e  w      .text	00000000 __vector_24
0000008e  w      .text	00000000 __vector_12
0000008e g       .text	00000000 __bad_interrupt
0000022c g       .text	00000000 usbasploader
00000c88 g       *ABS*	00000000 __data_load_end
0000008e  w      .text	00000000 __vector_6
00000068 g       .text	00000000 __trampolines_end
0000008e  w      .text	00000000 __vector_3
0000008e  w      .text	00000000 __vector_23
00000c86 g       *ABS*	00000000 __data_load_start
00000068 g       .text	00000000 __dtors_end
00000400 g       *ABS*	00000000 __LOCK_REGION_LENGTH__
0000008e  w      .text	00000000 __vector_25
0000008e  w      .text	00000000 __vector_11
00000068  w      .text	00000000 __init
00000ab6 g       .text	00000000 _binary_usbasploader_raw_end
0000008e  w      .text	00000000 __vector_13
0000008e  w      .text	00000000 __vector_17
0000008e  w      .text	00000000 __vector_19
0000008e  w      .text	00000000 __vector_7
00810000 g       .text	00000000 __eeprom_end
00000000 g       .text	00000000 __vectors
00800102 g       .data	00000000 __data_end
0000088a g       *ABS*	00000000 _binary_usbasploader_raw_size
00000000  w      .text	00000000 __vector_default
0000008e  w      .text	00000000 __vector_5
00000124 g     F .text	00000108 mypgm_WRITEpage
000000ec g     F .text	00000038 mypgm_readpage
00000400 g       *ABS*	00000000 __SIGNATURE_REGION_LENGTH__
00000068 g       .text	00000000 __ctors_start
00000074 g       .text	00000016 .hidden __do_copy_data
00000c74 g     F .text	0000000e memset
00000ac8 g     F .text	000001ac main
0000008e  w      .text	00000000 __vector_4
00800060 g       *ABS*	00000000 __DATA_REGION_ORIGIN__
00000000  w      *ABS*	00000000 __heap_end
0000008e  w      .text	00000000 __vector_9
0000008e  w      .text	00000000 __vector_2
00000400 g       *ABS*	00000000 __USER_SIGNATURE_REGION_LENGTH__
0000008e  w      .text	00000000 __vector_21
0000008e  w      .text	00000000 __vector_15
00000068 g       .text	00000000 __dtors_start
00000068 g       .text	00000000 __ctors_end
000008ff  w      *ABS*	00000000 __stack
00800102 g       .data	00000000 _edata
00800102 g       .text	00000000 _end
0000008e  w      .text	00000000 __vector_8
00000c82  w      .text	00000000 .hidden exit
00010000 g       *ABS*	00000000 __EEPROM_REGION_LENGTH__
00000c82 g       .text	00000000 .hidden _exit
0000008e  w      .text	00000000 __vector_14
000000be g     F .text	0000002e temp_do_spm
0000008e  w      .text	00000000 __vector_10
0000008e  w      .text	00000000 __vector_16
00800100 g       .data	00000000 __data_start
0000008e  w      .text	00000000 __vector_18
00000003 g       *ABS*	00000000 __FUSE_REGION_LENGTH__
00020000 g       *ABS*	00000000 __TEXT_REGION_LENGTH__
0000008e  w      .text	00000000 __vector_20



Disassembly of section .text:

00000000 <__vectors>:
   0:	33 c0       	rjmp	.+102    	; 0x68 <__ctors_end>
   2:	00 00       	nop
   4:	44 c0       	rjmp	.+136    	; 0x8e <__bad_interrupt>
   6:	00 00       	nop
   8:	42 c0       	rjmp	.+132    	; 0x8e <__bad_interrupt>
   a:	00 00       	nop
   c:	40 c0       	rjmp	.+128    	; 0x8e <__bad_interrupt>
   e:	00 00       	nop
  10:	3e c0       	rjmp	.+124    	; 0x8e <__bad_interrupt>
  12:	00 00       	nop
  14:	3c c0       	rjmp	.+120    	; 0x8e <__bad_interrupt>
  16:	00 00       	nop
  18:	3a c0       	rjmp	.+116    	; 0x8e <__bad_interrupt>
  1a:	00 00       	nop
  1c:	38 c0       	rjmp	.+112    	; 0x8e <__bad_interrupt>
  1e:	00 00       	nop
  20:	36 c0       	rjmp	.+108    	; 0x8e <__bad_interrupt>
  22:	00 00       	nop
  24:	34 c0       	rjmp	.+104    	; 0x8e <__bad_interrupt>
  26:	00 00       	nop
  28:	32 c0       	rjmp	.+100    	; 0x8e <__bad_interrupt>
  2a:	00 00       	nop
  2c:	30 c0       	rjmp	.+96     	; 0x8e <__bad_interrupt>
  2e:	00 00       	nop
  30:	2e c0       	rjmp	.+92     	; 0x8e <__bad_interrupt>
  32:	00 00       	nop
  34:	2c c0       	rjmp	.+88     	; 0x8e <__bad_interrupt>
  36:	00 00       	nop
  38:	2a c0       	rjmp	.+84     	; 0x8e <__bad_interrupt>
  3a:	00 00       	nop
  3c:	28 c0       	rjmp	.+80     	; 0x8e <__bad_interrupt>
  3e:	00 00       	nop
  40:	26 c0       	rjmp	.+76     	; 0x8e <__bad_interrupt>
  42:	00 00       	nop
  44:	24 c0       	rjmp	.+72     	; 0x8e <__bad_interrupt>
  46:	00 00       	nop
  48:	22 c0       	rjmp	.+68     	; 0x8e <__bad_interrupt>
  4a:	00 00       	nop
  4c:	20 c0       	rjmp	.+64     	; 0x8e <__bad_interrupt>
  4e:	00 00       	nop
  50:	1e c0       	rjmp	.+60     	; 0x8e <__bad_interrupt>
  52:	00 00       	nop
  54:	1c c0       	rjmp	.+56     	; 0x8e <__bad_interrupt>
  56:	00 00       	nop
  58:	1a c0       	rjmp	.+52     	; 0x8e <__bad_interrupt>
  5a:	00 00       	nop
  5c:	18 c0       	rjmp	.+48     	; 0x8e <__bad_interrupt>
  5e:	00 00       	nop
  60:	16 c0       	rjmp	.+44     	; 0x8e <__bad_interrupt>
  62:	00 00       	nop
  64:	14 c0       	rjmp	.+40     	; 0x8e <__bad_interrupt>
	...

00000068 <__ctors_end>:
  68:	11 24       	eor	r1, r1
  6a:	1f be       	out	0x3f, r1	; 63
  6c:	cf ef       	ldi	r28, 0xFF	; 255
  6e:	d8 e0       	ldi	r29, 0x08	; 8
  70:	de bf       	out	0x3e, r29	; 62
  72:	cd bf       	out	0x3d, r28	; 61

00000074 <__do_copy_data>:
  74:	11 e0       	ldi	r17, 0x01	; 1

00000076 <.Loc.1>:
  76:	a0 e0       	ldi	r26, 0x00	; 0

00000078 <.Loc.2>:
  78:	b1 e0       	ldi	r27, 0x01	; 1

0000007a <.Loc.3>:
  7a:	e6 e8       	ldi	r30, 0x86	; 134

0000007c <.Loc.4>:
  7c:	fc e0       	ldi	r31, 0x0C	; 12

0000007e <.Loc.5>:
  7e:	02 c0       	rjmp	.+4      	; 0x84 <.L__do_copy_data_start>

00000080 <.L__do_copy_data_loop>:
  80:	05 90       	lpm	r0, Z+

00000082 <.Loc.7>:
  82:	0d 92       	st	X+, r0

00000084 <.L__do_copy_data_start>:
  84:	a2 30       	cpi	r26, 0x02	; 2

00000086 <.Loc.9>:
  86:	b1 07       	cpc	r27, r17

00000088 <.Loc.10>:
  88:	d9 f7       	brne	.-10     	; 0x80 <.L__do_copy_data_loop>

0000008a <L0^A>:
  8a:	1e d5       	rcall	.+2620   	; 0xac8 <main>
  8c:	fa c5       	rjmp	.+3060   	; 0xc82 <_exit>

0000008e <__bad_interrupt>:
  8e:	b8 cf       	rjmp	.-144    	; 0x0 <__vectors>

00000090 <do_spm>:
  90:	bf 92       	push	r11
  92:	cf 92       	push	r12
  94:	df 92       	push	r13
  96:	d9 01       	movw	r26, r18

00000098 <.Loc.2>:
  98:	e4 e3       	ldi	r30, 0x34	; 52
  9a:	f8 e3       	ldi	r31, 0x38	; 56
  9c:	0f 92       	push	r0
  9e:	1f 92       	push	r1
  a0:	d7 2e       	mov	r13, r23
  a2:	c6 2e       	mov	r12, r22
  a4:	b8 2e       	mov	r11, r24
  a6:	24 2f       	mov	r18, r20
  a8:	1b 2e       	mov	r1, r27
  aa:	0a 2e       	mov	r0, r26
  ac:	09 95       	icall
  ae:	21 31       	cpi	r18, 0x11	; 17

000000b0 <loop23>:
  b0:	f9 f7       	brne	.-2      	; 0xb0 <loop23>
  b2:	1f 90       	pop	r1
  b4:	0f 90       	pop	r0

000000b6 <.Loc.3>:
  b6:	df 90       	pop	r13
  b8:	cf 90       	pop	r12
  ba:	bf 90       	pop	r11
  bc:	08 95       	ret

000000be <temp_do_spm>:
void temp_do_spm(const uint32_t flash_byteaddress, const uint8_t spmcrval, const uint16_t dataword) {
  be:	bf 92       	push	r11
  c0:	cf 92       	push	r12
  c2:	df 92       	push	r13
  c4:	d9 01       	movw	r26, r18

000000c6 <.Loc.6>:
    __do_spm_Ex(flash_byteaddress, spmcrval, dataword, TEMP_SPM_ADDRESS >> 1);
  c6:	e4 e3       	ldi	r30, 0x34	; 52
  c8:	ff e3       	ldi	r31, 0x3F	; 63
  ca:	0f 92       	push	r0
  cc:	1f 92       	push	r1
  ce:	d7 2e       	mov	r13, r23
  d0:	c6 2e       	mov	r12, r22
  d2:	b8 2e       	mov	r11, r24
  d4:	24 2f       	mov	r18, r20
  d6:	1b 2e       	mov	r1, r27
  d8:	0a 2e       	mov	r0, r26
  da:	09 95       	icall
  dc:	21 31       	cpi	r18, 0x11	; 17

000000de <loop54>:
  de:	f9 f7       	brne	.-2      	; 0xde <loop54>
  e0:	1f 90       	pop	r1
  e2:	0f 90       	pop	r0

000000e4 <.Loc.7>:
}
  e4:	df 90       	pop	r13
  e6:	cf 90       	pop	r12
  e8:	bf 90       	pop	r11
  ea:	08 95       	ret

000000ec <mypgm_readpage>:
size_t mypgm_readpage(const mypgm_addr_t byteaddress,const void* buffer, const size_t bufferbytesize) {
  ec:	cf 92       	push	r12
  ee:	df 92       	push	r13
  f0:	ef 92       	push	r14
  f2:	ff 92       	push	r15
  f4:	cf 93       	push	r28
  f6:	df 93       	push	r29
  f8:	6b 01       	movw	r12, r22
  fa:	7c 01       	movw	r14, r24
  fc:	ca 01       	movw	r24, r20
  fe:	e9 01       	movw	r28, r18

00000100 <.Loc.10>:
  size_t	result		= (bufferbytesize < SPM_PAGESIZE)?bufferbytesize:SPM_PAGESIZE;
 100:	21 38       	cpi	r18, 0x81	; 129
 102:	31 05       	cpc	r19, r1
 104:	10 f0       	brcs	.+4      	; 0x10a <.L4>
 106:	c0 e8       	ldi	r28, 0x80	; 128
 108:	d0 e0       	ldi	r29, 0x00	; 0

0000010a <.L4>:
  mypgm_addr_t	pageaddr	= byteaddress - (byteaddress % SPM_PAGESIZE);
 10a:	b7 01       	movw	r22, r14
 10c:	a6 01       	movw	r20, r12

0000010e <.Loc.15>:
 10e:	40 78       	andi	r20, 0x80	; 128

00000110 <.Loc.16>:
  mymemcpy_PF((void*)buffer, (uint_farptr_t)pageaddr, result);
 110:	9e 01       	movw	r18, r28

00000112 <.Loc.17>:
 112:	d1 d4       	rcall	.+2466   	; 0xab6 <memcpy_PF>

00000114 <.LVL9>:
}
 114:	ce 01       	movw	r24, r28
 116:	df 91       	pop	r29
 118:	cf 91       	pop	r28

0000011a <.Loc.20>:
 11a:	ff 90       	pop	r15
 11c:	ef 90       	pop	r14
 11e:	df 90       	pop	r13
 120:	cf 90       	pop	r12

00000122 <.Loc.21>:
 122:	08 95       	ret

00000124 <mypgm_WRITEpage>:
size_t mypgm_WRITEpage(const mypgm_addr_t byteaddress,const void* buffer, const size_t bufferbytesize, mypgm_spminterface spmfunc) {
 124:	2f 92       	push	r2
 126:	3f 92       	push	r3
 128:	4f 92       	push	r4
 12a:	5f 92       	push	r5
 12c:	6f 92       	push	r6
 12e:	7f 92       	push	r7
 130:	8f 92       	push	r8
 132:	9f 92       	push	r9
 134:	af 92       	push	r10
 136:	bf 92       	push	r11
 138:	cf 92       	push	r12
 13a:	df 92       	push	r13
 13c:	ef 92       	push	r14
 13e:	ff 92       	push	r15
 140:	0f 93       	push	r16
 142:	1f 93       	push	r17
 144:	cf 93       	push	r28
 146:	df 93       	push	r29
 148:	4b 01       	movw	r8, r22
 14a:	5c 01       	movw	r10, r24
 14c:	18 01       	movw	r2, r16

0000014e <.Loc.24>:
  size_t	result		= (bufferbytesize < SPM_PAGESIZE)?bufferbytesize:SPM_PAGESIZE;
 14e:	e9 01       	movw	r28, r18
 150:	21 38       	cpi	r18, 0x81	; 129
 152:	31 05       	cpc	r19, r1
 154:	10 f0       	brcs	.+4      	; 0x15a <.L6>
 156:	c0 e8       	ldi	r28, 0x80	; 128
 158:	d0 e0       	ldi	r29, 0x00	; 0

0000015a <.L6>:
  size_t	pagesize	= result >> 1;
 15a:	6e 01       	movw	r12, r28
 15c:	d6 94       	lsr	r13
 15e:	c7 94       	ror	r12

00000160 <.LVL14>:
  mypgm_addr_t	pageaddr_bakup	= byteaddress - (byteaddress % SPM_PAGESIZE);
 160:	80 e8       	ldi	r24, 0x80	; 128
 162:	88 22       	and	r8, r24

00000164 <.LVL15>:
  for (i=0;i<pagesize;i+=1) {
 164:	94 01       	movw	r18, r8

00000166 <.Loc.37>:
 166:	8a 01       	movw	r16, r20

00000168 <.Loc.38>:
 168:	da 01       	movw	r26, r20

0000016a <.Loc.39>:
 16a:	80 e0       	ldi	r24, 0x00	; 0
 16c:	90 e0       	ldi	r25, 0x00	; 0

0000016e <.Loc.40>:
  uint8_t	changed=0, needs_erase=0;
 16e:	f1 2c       	mov	r15, r1

00000170 <.Loc.41>:
 170:	e1 2c       	mov	r14, r1

00000172 <.L7>:
  for (i=0;i<pagesize;i+=1) {
 172:	8c 15       	cp	r24, r12
 174:	9d 05       	cpc	r25, r13
 176:	71 f5       	brne	.+92     	; 0x1d4 <.L10>

00000178 <.Loc.43>:
  if (changed) {
 178:	e1 14       	cp	r14, r1
 17a:	09 f4       	brne	.+2      	; 0x17e <.Loc.45>

0000017c <L0^A>:
 17c:	54 c0       	rjmp	.+168    	; 0x226 <.L17>

0000017e <.Loc.45>:
    if (needs_erase) {
 17e:	f1 14       	cp	r15, r1
 180:	39 f0       	breq	.+14     	; 0x190 <.L12>

00000182 <.Loc.47>:
      spmfunc(pageaddr_bakup, updater_pageerasecode, 0);
 182:	20 e0       	ldi	r18, 0x00	; 0
 184:	30 e0       	ldi	r19, 0x00	; 0
 186:	43 e0       	ldi	r20, 0x03	; 3
 188:	c5 01       	movw	r24, r10
 18a:	b4 01       	movw	r22, r8
 18c:	f1 01       	movw	r30, r2
 18e:	09 95       	icall

00000190 <.L12>:
  uint8_t	changed=0, needs_erase=0;
 190:	24 01       	movw	r4, r8
 192:	35 01       	movw	r6, r10
 194:	e1 2c       	mov	r14, r1
 196:	f1 2c       	mov	r15, r1

00000198 <.L13>:
    for (i=0;i<pagesize;i+=1) {
 198:	ec 14       	cp	r14, r12
 19a:	fd 04       	cpc	r15, r13
 19c:	91 f5       	brne	.+100    	; 0x202 <.L14>

0000019e <.Loc.50>:
    spmfunc(pageaddr_bakup, updater_pagewritecode, 0);
 19e:	20 e0       	ldi	r18, 0x00	; 0
 1a0:	30 e0       	ldi	r19, 0x00	; 0
 1a2:	45 e0       	ldi	r20, 0x05	; 5
 1a4:	c5 01       	movw	r24, r10
 1a6:	b4 01       	movw	r22, r8
 1a8:	f1 01       	movw	r30, r2
 1aa:	09 95       	icall

000001ac <.L5>:
}
 1ac:	ce 01       	movw	r24, r28
 1ae:	df 91       	pop	r29
 1b0:	cf 91       	pop	r28
 1b2:	1f 91       	pop	r17
 1b4:	0f 91       	pop	r16
 1b6:	ff 90       	pop	r15

000001b8 <.Loc.52>:
 1b8:	ef 90       	pop	r14
 1ba:	df 90       	pop	r13
 1bc:	cf 90       	pop	r12

000001be <.Loc.53>:
 1be:	bf 90       	pop	r11
 1c0:	af 90       	pop	r10
 1c2:	9f 90       	pop	r9
 1c4:	8f 90       	pop	r8

000001c6 <.Loc.54>:
 1c6:	7f 90       	pop	r7
 1c8:	6f 90       	pop	r6
 1ca:	5f 90       	pop	r5
 1cc:	4f 90       	pop	r4
 1ce:	3f 90       	pop	r3
 1d0:	2f 90       	pop	r2

000001d2 <.Loc.55>:
 1d2:	08 95       	ret

000001d4 <.L10>:
    deeword=pgm_read_word(pageaddr);
 1d4:	f9 01       	movw	r30, r18
 1d6:	45 91       	lpm	r20, Z+
 1d8:	54 91       	lpm	r21, Z

000001da <.LBE8>:
    if (deeword != pagedata[i]) changed=1;
 1da:	6d 91       	ld	r22, X+
 1dc:	7d 91       	ld	r23, X+

000001de <.Loc.64>:
 1de:	64 17       	cp	r22, r20
 1e0:	75 07       	cpc	r23, r21
 1e2:	11 f0       	breq	.+4      	; 0x1e8 <.L8>

000001e4 <.Loc.65>:
 1e4:	ee 24       	eor	r14, r14
 1e6:	e3 94       	inc	r14

000001e8 <.L8>:
    deeword |= ~pagedata[i];
 1e8:	60 95       	com	r22
 1ea:	70 95       	com	r23

000001ec <.Loc.69>:
 1ec:	64 2b       	or	r22, r20
 1ee:	75 2b       	or	r23, r21

000001f0 <.Loc.70>:
    if ((~deeword) != 0) needs_erase=1;
 1f0:	6f 3f       	cpi	r22, 0xFF	; 255
 1f2:	7f 4f       	sbci	r23, 0xFF	; 255
 1f4:	11 f0       	breq	.+4      	; 0x1fa <.L9>

000001f6 <.Loc.71>:
 1f6:	ff 24       	eor	r15, r15
 1f8:	f3 94       	inc	r15

000001fa <.L9>:
  for (i=0;i<pagesize;i+=1) {
 1fa:	01 96       	adiw	r24, 0x01	; 1

000001fc <.Loc.74>:
 1fc:	2e 5f       	subi	r18, 0xFE	; 254
 1fe:	3f 4f       	sbci	r19, 0xFF	; 255
 200:	b8 cf       	rjmp	.-144    	; 0x172 <.L7>

00000202 <.L14>:
      spmfunc(pageaddr, updater_pagefillcode, pagedata[i]);
 202:	f8 01       	movw	r30, r16
 204:	21 91       	ld	r18, Z+
 206:	31 91       	ld	r19, Z+
 208:	8f 01       	movw	r16, r30
 20a:	41 e0       	ldi	r20, 0x01	; 1
 20c:	c3 01       	movw	r24, r6
 20e:	b2 01       	movw	r22, r4
 210:	f1 01       	movw	r30, r2
 212:	09 95       	icall

00000214 <.LVL33>:
      pageaddr+=2;
 214:	f2 e0       	ldi	r31, 0x02	; 2
 216:	4f 0e       	add	r4, r31
 218:	51 1c       	adc	r5, r1
 21a:	61 1c       	adc	r6, r1
 21c:	71 1c       	adc	r7, r1

0000021e <.Loc.78>:
    for (i=0;i<pagesize;i+=1) {
 21e:	4f ef       	ldi	r20, 0xFF	; 255
 220:	e4 1a       	sub	r14, r20
 222:	f4 0a       	sbc	r15, r20

00000224 <.Loc.79>:
 224:	b9 cf       	rjmp	.-142    	; 0x198 <.L13>

00000226 <.L17>:
    result = 0;
 226:	c0 e0       	ldi	r28, 0x00	; 0
 228:	d0 e0       	ldi	r29, 0x00	; 0

0000022a <.Loc.81>:
  return result;
 22a:	c0 cf       	rjmp	.-128    	; 0x1ac <.L5>

0000022c <usbasploader>:
 22c:	6b c0       	rjmp	.+214    	; 0x304 <.LLST13+0x14>
 22e:	00 00       	nop
 230:	aa c0       	rjmp	.+340    	; 0x386 <.LLST15+0x34>
 232:	00 00       	nop
 234:	8e c0       	rjmp	.+284    	; 0x352 <.LLST15>
 236:	00 00       	nop
 238:	8c c0       	rjmp	.+280    	; 0x352 <.LLST15>
 23a:	00 00       	nop
 23c:	8a c0       	rjmp	.+276    	; 0x352 <.LLST15>
 23e:	00 00       	nop
 240:	88 c0       	rjmp	.+272    	; 0x352 <.LLST15>
 242:	00 00       	nop
 244:	86 c0       	rjmp	.+268    	; 0x352 <.LLST15>
 246:	00 00       	nop
 248:	84 c0       	rjmp	.+264    	; 0x352 <.LLST15>
 24a:	00 00       	nop
 24c:	82 c0       	rjmp	.+260    	; 0x352 <.LLST15>
 24e:	00 00       	nop
 250:	80 c0       	rjmp	.+256    	; 0x352 <.LLST15>
 252:	00 00       	nop
 254:	7e c0       	rjmp	.+252    	; 0x352 <.LLST15>
 256:	00 00       	nop
 258:	7c c0       	rjmp	.+248    	; 0x352 <.LLST15>
 25a:	00 00       	nop
 25c:	7a c0       	rjmp	.+244    	; 0x352 <.LLST15>
 25e:	00 00       	nop
 260:	78 c0       	rjmp	.+240    	; 0x352 <.LLST15>
 262:	00 00       	nop
 264:	76 c0       	rjmp	.+236    	; 0x352 <.LLST15>
 266:	00 00       	nop
 268:	74 c0       	rjmp	.+232    	; 0x352 <.LLST15>
 26a:	00 00       	nop
 26c:	72 c0       	rjmp	.+228    	; 0x352 <.LLST15>
 26e:	00 00       	nop
 270:	70 c0       	rjmp	.+224    	; 0x352 <.LLST15>
 272:	00 00       	nop
 274:	6e c0       	rjmp	.+220    	; 0x352 <.LLST15>
 276:	00 00       	nop
 278:	6c c0       	rjmp	.+216    	; 0x352 <.LLST15>
 27a:	00 00       	nop
 27c:	6a c0       	rjmp	.+212    	; 0x352 <.LLST15>
 27e:	00 00       	nop
 280:	68 c0       	rjmp	.+208    	; 0x352 <.LLST15>
 282:	00 00       	nop
 284:	66 c0       	rjmp	.+204    	; 0x352 <.LLST15>
 286:	00 00       	nop
 288:	64 c0       	rjmp	.+200    	; 0x352 <.LLST15>
 28a:	00 00       	nop
 28c:	62 c0       	rjmp	.+196    	; 0x352 <.LLST15>
 28e:	00 00       	nop
 290:	60 c0       	rjmp	.+192    	; 0x352 <.LLST15>
 292:	00 00       	nop
 294:	ec 2d       	mov	r30, r12
 296:	fd 2d       	mov	r31, r13
 298:	b7 b6       	in	r11, 0x37	; 55
 29a:	b0 fc       	sbrc	r11, 0
 29c:	fd cf       	rjmp	.-6      	; 0x298 <.LLST10+0x2f>
 29e:	27 bf       	out	0x37, r18	; 55
 2a0:	e8 95       	spm
 2a2:	b7 b6       	in	r11, 0x37	; 55
 2a4:	b0 fc       	sbrc	r11, 0
 2a6:	fd cf       	rjmp	.-6      	; 0x2a2 <.LVUS11+0x2>
 2a8:	21 e1       	ldi	r18, 0x11	; 17
 2aa:	b7 b6       	in	r11, 0x37	; 55
 2ac:	b6 fc       	sbrc	r11, 6
 2ae:	f4 cf       	rjmp	.-24     	; 0x298 <.LLST10+0x2f>
 2b0:	08 95       	ret
 2b2:	09 02       	muls	r16, r25
 2b4:	12 00       	.word	0x0012	; ????
 2b6:	01 01       	movw	r0, r2
 2b8:	00 80       	ld	r0, Z
 2ba:	32 09       	sbc	r19, r2
 2bc:	04 00       	.word	0x0004	; ????
 2be:	00 00       	nop
 2c0:	00 00       	nop
 2c2:	00 00       	nop
 2c4:	12 01       	movw	r2, r4
 2c6:	10 01       	movw	r2, r0
 2c8:	ff 00       	.word	0x00ff	; ????
 2ca:	00 08       	sbc	r0, r0
 2cc:	c0 16       	cp	r12, r16
 2ce:	dc 05       	cpc	r29, r12
 2d0:	02 01       	movw	r0, r4
 2d2:	01 02       	muls	r16, r17
 2d4:	00 01       	movw	r0, r0
 2d6:	0e 03       	fmul	r16, r22
 2d8:	55 00       	.word	0x0055	; ????
 2da:	53 00       	.word	0x0053	; ????
 2dc:	42 00       	.word	0x0042	; ????
 2de:	61 00       	.word	0x0061	; ????
 2e0:	73 00       	.word	0x0073	; ????
 2e2:	70 00       	.word	0x0070	; ????
 2e4:	1c 03       	fmul	r17, r20
 2e6:	77 00       	.word	0x0077	; ????
 2e8:	77 00       	.word	0x0077	; ????
 2ea:	77 00       	.word	0x0077	; ????
 2ec:	2e 00       	.word	0x002e	; ????
 2ee:	66 00       	.word	0x0066	; ????
 2f0:	69 00       	.word	0x0069	; ????
 2f2:	73 00       	.word	0x0073	; ????
 2f4:	63 00       	.word	0x0063	; ????
 2f6:	68 00       	.word	0x0068	; ????
 2f8:	6c 00       	.word	0x006c	; ????
 2fa:	2e 00       	.word	0x002e	; ????
 2fc:	64 00       	.word	0x0064	; ????
 2fe:	65 00       	.word	0x0065	; ????
 300:	04 03       	mulsu	r16, r20
 302:	09 04       	cpc	r0, r9
 304:	11 24       	eor	r1, r1
 306:	1f be       	out	0x3f, r1	; 63
 308:	cf ef       	ldi	r28, 0xFF	; 255
 30a:	d8 e0       	ldi	r29, 0x08	; 8
 30c:	de bf       	out	0x3e, r29	; 62
 30e:	cd bf       	out	0x3d, r28	; 61
 310:	24 b7       	in	r18, 0x34	; 52
 312:	d8 e0       	ldi	r29, 0x08	; 8
 314:	ce ef       	ldi	r28, 0xFE	; 254
 316:	39 91       	ld	r19, Y+
 318:	38 33       	cpi	r19, 0x38	; 56
 31a:	39 91       	ld	r19, Y+
 31c:	09 f0       	breq	.+2      	; 0x320 <.LLST13+0x30>
 31e:	3f ef       	ldi	r19, 0xFF	; 255
 320:	30 93 3c 01 	sts	0x013C, r19	; 0x80013c <_end+0x3a>
 324:	20 93 3b 01 	sts	0x013B, r18	; 0x80013b <_end+0x39>
 328:	11 e0       	ldi	r17, 0x01	; 1
 32a:	a0 e0       	ldi	r26, 0x00	; 0
 32c:	b1 e0       	ldi	r27, 0x01	; 1
 32e:	e4 e8       	ldi	r30, 0x84	; 132
 330:	f8 e7       	ldi	r31, 0x78	; 120
 332:	02 c0       	rjmp	.+4      	; 0x338 <.LLST14+0x13>
 334:	05 90       	lpm	r0, Z+
 336:	0d 92       	st	X+, r0
 338:	a6 30       	cpi	r26, 0x06	; 6
 33a:	b1 07       	cpc	r27, r17
 33c:	d9 f7       	brne	.-10     	; 0x334 <.LLST14+0xf>
 33e:	21 e0       	ldi	r18, 0x01	; 1
 340:	a6 e0       	ldi	r26, 0x06	; 6
 342:	b1 e0       	ldi	r27, 0x01	; 1
 344:	01 c0       	rjmp	.+2      	; 0x348 <.LLST14+0x23>
 346:	1d 92       	st	X+, r1
 348:	ab 33       	cpi	r26, 0x3B	; 59
 34a:	b2 07       	cpc	r27, r18
 34c:	e1 f7       	brne	.-8      	; 0x346 <.LLST14+0x21>
 34e:	7c d1       	rcall	.+760    	; 0x648 <.Ldebug_info0+0x54>
 350:	ad c3       	rjmp	.+1882   	; 0xaac <__stack+0x1ad>
 352:	6c cf       	rjmp	.-296    	; 0x22c <usbasploader>
 354:	a8 2f       	mov	r26, r24
 356:	b9 2f       	mov	r27, r25
 358:	80 e0       	ldi	r24, 0x00	; 0
 35a:	90 e0       	ldi	r25, 0x00	; 0
 35c:	41 e0       	ldi	r20, 0x01	; 1
 35e:	50 ea       	ldi	r21, 0xA0	; 160
 360:	60 95       	com	r22
 362:	30 e0       	ldi	r19, 0x00	; 0
 364:	09 c0       	rjmp	.+18     	; 0x378 <.LLST15+0x26>
 366:	2d 91       	ld	r18, X+
 368:	82 27       	eor	r24, r18
 36a:	97 95       	ror	r25
 36c:	87 95       	ror	r24
 36e:	10 f0       	brcs	.+4      	; 0x374 <.LLST15+0x22>
 370:	84 27       	eor	r24, r20
 372:	95 27       	eor	r25, r21
 374:	30 5e       	subi	r19, 0xE0	; 224
 376:	c8 f3       	brcs	.-14     	; 0x36a <.LLST15+0x18>
 378:	6f 5f       	subi	r22, 0xFF	; 255
 37a:	a8 f3       	brcs	.-22     	; 0x366 <.LLST15+0x14>
 37c:	08 95       	ret
 37e:	ea df       	rcall	.-44     	; 0x354 <.LLST15+0x2>
 380:	8d 93       	st	X+, r24
 382:	9d 93       	st	X+, r25
 384:	08 95       	ret
 386:	cf 93       	push	r28
 388:	cf b7       	in	r28, 0x3f	; 63
 38a:	cf 93       	push	r28
 38c:	df 93       	push	r29
 38e:	c3 95       	inc	r28
 390:	4b 9b       	sbis	0x09, 3	; 9
 392:	e9 f7       	brne	.-6      	; 0x38e <.LVUS16+0x4>
 394:	4b 9b       	sbis	0x09, 3	; 9
 396:	0b c0       	rjmp	.+22     	; 0x3ae <.LLST16+0x1c>
 398:	4b 9b       	sbis	0x09, 3	; 9
 39a:	09 c0       	rjmp	.+18     	; 0x3ae <.LLST16+0x1c>
 39c:	4b 9b       	sbis	0x09, 3	; 9
 39e:	07 c0       	rjmp	.+14     	; 0x3ae <.LLST16+0x1c>
 3a0:	4b 9b       	sbis	0x09, 3	; 9
 3a2:	05 c0       	rjmp	.+10     	; 0x3ae <.LLST16+0x1c>
 3a4:	4b 9b       	sbis	0x09, 3	; 9
 3a6:	03 c0       	rjmp	.+6      	; 0x3ae <.LLST16+0x1c>
 3a8:	4b 9b       	sbis	0x09, 3	; 9
 3aa:	01 c0       	rjmp	.+2      	; 0x3ae <.LLST16+0x1c>
 3ac:	89 c0       	rjmp	.+274    	; 0x4c0 <.LLST2+0x16>
 3ae:	6f 93       	push	r22
 3b0:	c0 91 19 01 	lds	r28, 0x0119	; 0x800119 <_end+0x17>
 3b4:	dd 27       	eor	r29, r29
 3b6:	c6 5e       	subi	r28, 0xE6	; 230
 3b8:	de 4f       	sbci	r29, 0xFE	; 254
 3ba:	2f 93       	push	r18
 3bc:	65 e5       	ldi	r22, 0x55	; 85
 3be:	4b 9b       	sbis	0x09, 3	; 9
 3c0:	03 c0       	rjmp	.+6      	; 0x3c8 <.LLST17+0x12>
 3c2:	2f 91       	pop	r18
 3c4:	6f 91       	pop	r22
 3c6:	e6 cf       	rjmp	.-52     	; 0x394 <.LLST16+0x2>
 3c8:	0f 93       	push	r16
 3ca:	1f 93       	push	r17
 3cc:	4f 93       	push	r20
 3ce:	20 e0       	ldi	r18, 0x00	; 0
 3d0:	40 e1       	ldi	r20, 0x10	; 16
 3d2:	5f 93       	push	r21
 3d4:	09 b1       	in	r16, 0x09	; 9
 3d6:	0c 70       	andi	r16, 0x0C	; 12
 3d8:	03 fb       	bst	r16, 3
 3da:	27 f9       	bld	r18, 7
 3dc:	3f 93       	push	r19
 3de:	50 e0       	ldi	r21, 0x00	; 0
 3e0:	3b e0       	ldi	r19, 0x0B	; 11
 3e2:	39 c0       	rjmp	.+114    	; 0x456 <.LLST20+0xa>
 3e4:	1c 70       	andi	r17, 0x0C	; 12
 3e6:	40 64       	ori	r20, 0x40	; 64
 3e8:	2f 77       	andi	r18, 0x7F	; 127
 3ea:	01 2f       	mov	r16, r17
 3ec:	5f 5f       	subi	r21, 0xFF	; 255
 3ee:	1e c0       	rjmp	.+60     	; 0x42c <.LLST19+0x25>
 3f0:	40 68       	ori	r20, 0x80	; 128
 3f2:	19 b1       	in	r17, 0x09	; 9
 3f4:	1c 70       	andi	r17, 0x0C	; 12
 3f6:	2f 77       	andi	r18, 0x7F	; 127
 3f8:	52 50       	subi	r21, 0x02	; 2
 3fa:	1f c0       	rjmp	.+62     	; 0x43a <.LLST19+0x33>
 3fc:	40 64       	ori	r20, 0x40	; 64
 3fe:	09 b1       	in	r16, 0x09	; 9
 400:	2f 77       	andi	r18, 0x7F	; 127
 402:	0c 70       	andi	r16, 0x0C	; 12
 404:	d1 f1       	breq	.+116    	; 0x47a <.LLST1+0xc>
 406:	5f 5f       	subi	r21, 0xFF	; 255
 408:	00 c0       	rjmp	.+0      	; 0x40a <.LLST19+0x3>
 40a:	23 c0       	rjmp	.+70     	; 0x452 <.LLST20+0x6>
 40c:	40 62       	ori	r20, 0x20	; 32
 40e:	19 b1       	in	r17, 0x09	; 9
 410:	2f 77       	andi	r18, 0x7F	; 127
 412:	1c 70       	andi	r17, 0x0C	; 12
 414:	91 f1       	breq	.+100    	; 0x47a <.LLST1+0xc>
 416:	5f 5f       	subi	r21, 0xFF	; 255
 418:	00 c0       	rjmp	.+0      	; 0x41a <.LLST19+0x13>
 41a:	25 c0       	rjmp	.+74     	; 0x466 <.LLST21+0xa>
 41c:	0c 70       	andi	r16, 0x0C	; 12
 41e:	10 27       	eor	r17, r16
 420:	51 50       	subi	r21, 0x01	; 1
 422:	12 f4       	brpl	.+4      	; 0x428 <.LLST19+0x21>
 424:	5d 5f       	subi	r21, 0xFD	; 253
 426:	00 00       	nop
 428:	11 50       	subi	r17, 0x01	; 1
 42a:	27 95       	ror	r18
 42c:	2c 3f       	cpi	r18, 0xFC	; 252
 42e:	19 b1       	in	r17, 0x09	; 9
 430:	c8 f6       	brcc	.-78     	; 0x3e4 <.LLST18+0x11>
 432:	1c 70       	andi	r17, 0x0C	; 12
 434:	01 27       	eor	r16, r17
 436:	01 50       	subi	r16, 0x01	; 1
 438:	27 95       	ror	r18
 43a:	2c 3f       	cpi	r18, 0xFC	; 252
 43c:	c8 f6       	brcc	.-78     	; 0x3f0 <.LLST18+0x1d>
 43e:	42 27       	eor	r20, r18
 440:	49 93       	st	Y+, r20
 442:	09 b1       	in	r16, 0x09	; 9
 444:	0c 70       	andi	r16, 0x0C	; 12
 446:	10 27       	eor	r17, r16
 448:	4f 73       	andi	r20, 0x3F	; 63
 44a:	11 50       	subi	r17, 0x01	; 1
 44c:	27 95       	ror	r18
 44e:	2c 3f       	cpi	r18, 0xFC	; 252
 450:	a8 f6       	brcc	.-86     	; 0x3fc <.LVUS19+0x1>
 452:	46 95       	lsr	r20
 454:	46 95       	lsr	r20
 456:	19 b1       	in	r17, 0x09	; 9
 458:	1c 70       	andi	r17, 0x0C	; 12
 45a:	79 f0       	breq	.+30     	; 0x47a <.LLST1+0xc>
 45c:	01 27       	eor	r16, r17
 45e:	01 50       	subi	r16, 0x01	; 1
 460:	27 95       	ror	r18
 462:	2c 3f       	cpi	r18, 0xFC	; 252
 464:	98 f6       	brcc	.-90     	; 0x40c <.LLST19+0x5>
 466:	6b 5a       	subi	r22, 0xAB	; 171
 468:	60 f3       	brcs	.-40     	; 0x442 <.LLST19+0x3b>
 46a:	31 50       	subi	r19, 0x01	; 1
 46c:	09 b1       	in	r16, 0x09	; 9
 46e:	b0 f6       	brcc	.-84     	; 0x41c <.LLST19+0x15>
 470:	00 c0       	rjmp	.+0      	; 0x472 <.LLST1+0x4>
 472:	11 e0       	ldi	r17, 0x01	; 1
 474:	1c bb       	out	0x1c, r17	; 28
 476:	00 27       	eor	r16, r16
 478:	17 c0       	rjmp	.+46     	; 0x4a8 <.LVUS2+0x2>
 47a:	3b 50       	subi	r19, 0x0B	; 11
 47c:	31 95       	neg	r19
 47e:	c3 1b       	sub	r28, r19
 480:	d0 40       	sbci	r29, 0x00	; 0
 482:	11 e0       	ldi	r17, 0x01	; 1
 484:	1c bb       	out	0x1c, r17	; 28
 486:	08 81       	ld	r16, Y
 488:	03 3c       	cpi	r16, 0xC3	; 195
 48a:	f9 f0       	breq	.+62     	; 0x4ca <.LLST2+0x20>
 48c:	0b 34       	cpi	r16, 0x4B	; 75
 48e:	e9 f0       	breq	.+58     	; 0x4ca <.LLST2+0x20>
 490:	20 91 18 01 	lds	r18, 0x0118	; 0x800118 <_end+0x16>
 494:	19 81       	ldd	r17, Y+1	; 0x01
 496:	11 0f       	add	r17, r17
 498:	12 13       	cpse	r17, r18
 49a:	ed cf       	rjmp	.-38     	; 0x476 <.LLST1+0x8>
 49c:	09 36       	cpi	r16, 0x69	; 105
 49e:	51 f1       	breq	.+84     	; 0x4f4 <.LLST3+0x20>
 4a0:	0d 32       	cpi	r16, 0x2D	; 45
 4a2:	11 f0       	breq	.+4      	; 0x4a8 <.LVUS2+0x2>
 4a4:	01 3e       	cpi	r16, 0xE1	; 225
 4a6:	39 f7       	brne	.-50     	; 0x476 <.LLST1+0x8>
 4a8:	00 93 14 01 	sts	0x0114, r16	; 0x800114 <_end+0x12>
 4ac:	3f 91       	pop	r19
 4ae:	5f 91       	pop	r21
 4b0:	4f 91       	pop	r20
 4b2:	1f 91       	pop	r17
 4b4:	0f 91       	pop	r16
 4b6:	2f 91       	pop	r18
 4b8:	6f 91       	pop	r22
 4ba:	cc b3       	in	r28, 0x1c	; 28
 4bc:	c0 fd       	sbrc	r28, 0
 4be:	67 cf       	rjmp	.-306    	; 0x38e <.LVUS16+0x4>
 4c0:	df 91       	pop	r29
 4c2:	cf 91       	pop	r28
 4c4:	cf bf       	out	0x3f, r28	; 63
 4c6:	cf 91       	pop	r28
 4c8:	18 95       	reti
 4ca:	20 91 14 01 	lds	r18, 0x0114	; 0x800114 <_end+0x12>
 4ce:	22 23       	and	r18, r18
 4d0:	69 f3       	breq	.-38     	; 0x4ac <.LLST2+0x2>
 4d2:	10 91 15 01 	lds	r17, 0x0115	; 0x800115 <_end+0x13>
 4d6:	11 23       	and	r17, r17
 4d8:	39 f5       	brne	.+78     	; 0x528 <.LLST5+0x6>
 4da:	34 30       	cpi	r19, 0x04	; 4
 4dc:	3a f1       	brmi	.+78     	; 0x52c <.LLST5+0xa>
 4de:	30 93 15 01 	sts	0x0115, r19	; 0x800115 <_end+0x13>
 4e2:	20 93 13 01 	sts	0x0113, r18	; 0x800113 <_end+0x11>
 4e6:	10 91 19 01 	lds	r17, 0x0119	; 0x800119 <_end+0x17>
 4ea:	3b e0       	ldi	r19, 0x0B	; 11
 4ec:	31 1b       	sub	r19, r17
 4ee:	30 93 19 01 	sts	0x0119, r19	; 0x800119 <_end+0x17>
 4f2:	1c c0       	rjmp	.+56     	; 0x52c <.LLST5+0xa>
 4f4:	00 91 15 01 	lds	r16, 0x0115	; 0x800115 <_end+0x13>
 4f8:	01 30       	cpi	r16, 0x01	; 1
 4fa:	b4 f4       	brge	.+44     	; 0x528 <.LLST5+0x6>
 4fc:	0a e5       	ldi	r16, 0x5A	; 90
 4fe:	30 91 01 01 	lds	r19, 0x0101	; 0x800101 <new_firmware+0x1>
 502:	34 fd       	sbrc	r19, 4
 504:	14 c0       	rjmp	.+40     	; 0x52e <.LLST5+0xc>
 506:	00 93 01 01 	sts	0x0101, r16	; 0x800101 <new_firmware+0x1>
 50a:	c8 e0       	ldi	r28, 0x08	; 8
 50c:	d1 e0       	ldi	r29, 0x01	; 1
 50e:	13 c0       	rjmp	.+38     	; 0x536 <.LLST5+0x14>
 510:	05 27       	eor	r16, r21
 512:	10 e0       	ldi	r17, 0x00	; 0
 514:	00 c0       	rjmp	.+0      	; 0x516 <.LLST4+0x16>
 516:	00 00       	nop
 518:	0b b9       	out	0x0b, r16	; 11
 51a:	1a c0       	rjmp	.+52     	; 0x550 <.LLST6+0xe>
 51c:	05 27       	eor	r16, r21
 51e:	10 e0       	ldi	r17, 0x00	; 0
 520:	22 1f       	adc	r18, r18
 522:	1d c0       	rjmp	.+58     	; 0x55e <.LLST6+0x1c>
 524:	10 e0       	ldi	r17, 0x00	; 0
 526:	21 c0       	rjmp	.+66     	; 0x56a <.LLST6+0x28>
 528:	4a e5       	ldi	r20, 0x5A	; 90
 52a:	02 c0       	rjmp	.+4      	; 0x530 <.LLST5+0xe>
 52c:	32 ed       	ldi	r19, 0xD2	; 210
 52e:	43 2f       	mov	r20, r19
 530:	c4 e1       	ldi	r28, 0x14	; 20
 532:	d0 e0       	ldi	r29, 0x00	; 0
 534:	32 e0       	ldi	r19, 0x02	; 2
 536:	1a b1       	in	r17, 0x0a	; 10
 538:	1c 60       	ori	r17, 0x0C	; 12
 53a:	5b 9a       	sbi	0x0b, 3	; 11
 53c:	0b b1       	in	r16, 0x0b	; 11
 53e:	1a b9       	out	0x0a, r17	; 10
 540:	5c e0       	ldi	r21, 0x0C	; 12
 542:	20 e8       	ldi	r18, 0x80	; 128
 544:	65 e3       	ldi	r22, 0x35	; 53
 546:	20 ff       	sbrs	r18, 0
 548:	05 27       	eor	r16, r21
 54a:	0b b9       	out	0x0b, r16	; 11
 54c:	27 95       	ror	r18
 54e:	17 95       	ror	r17
 550:	1c 3f       	cpi	r17, 0xFC	; 252
 552:	f0 f6       	brcc	.-68     	; 0x510 <.LLST4+0x10>
 554:	66 95       	lsr	r22
 556:	b8 f7       	brcc	.-18     	; 0x546 <.LLST6+0x4>
 558:	b1 f7       	brne	.-20     	; 0x546 <.LLST6+0x4>
 55a:	20 ff       	sbrs	r18, 0
 55c:	05 27       	eor	r16, r21
 55e:	0b b9       	out	0x0b, r16	; 11
 560:	27 95       	ror	r18
 562:	17 95       	ror	r17
 564:	1c 3f       	cpi	r17, 0xFC	; 252
 566:	d0 f6       	brcc	.-76     	; 0x51c <.LLST4+0x1c>
 568:	27 95       	ror	r18
 56a:	17 95       	ror	r17
 56c:	17 ff       	sbrs	r17, 7
 56e:	05 27       	eor	r16, r21
 570:	00 00       	nop
 572:	1c 3f       	cpi	r17, 0xFC	; 252
 574:	0b b9       	out	0x0b, r16	; 11
 576:	b0 f6       	brcc	.-84     	; 0x524 <.LLST5+0x2>
 578:	29 91       	ld	r18, Y+
 57a:	3a 95       	dec	r19
 57c:	19 f7       	brne	.-58     	; 0x544 <.LLST6+0x2>
 57e:	03 7f       	andi	r16, 0xF3	; 243
 580:	10 91 17 01 	lds	r17, 0x0117	; 0x800117 <_end+0x15>
 584:	11 0f       	add	r17, r17
 586:	c6 51       	subi	r28, 0x16	; 22
 588:	d0 40       	sbci	r29, 0x00	; 0
 58a:	0b b9       	out	0x0b, r16	; 11
 58c:	11 f0       	breq	.+4      	; 0x592 <.LLST6+0x50>
 58e:	10 93 18 01 	sts	0x0118, r17	; 0x800118 <_end+0x16>
 592:	11 e0       	ldi	r17, 0x01	; 1
 594:	1c bb       	out	0x1c, r17	; 28
 596:	08 60       	ori	r16, 0x08	; 8
 598:	1a b1       	in	r17, 0x0a	; 10
 59a:	13 7f       	andi	r17, 0xF3	; 243
 59c:	40 2f       	mov	r20, r16
 59e:	43 7f       	andi	r20, 0xF3	; 243
 5a0:	54 e0       	ldi	r21, 0x04	; 4
 5a2:	5a 95       	dec	r21
 5a4:	f1 f7       	brne	.-4      	; 0x5a2 <.Ldebug_abbrev0>
 5a6:	0b b9       	out	0x0b, r16	; 11
 5a8:	1a b9       	out	0x0a, r17	; 10
 5aa:	4b b9       	out	0x0b, r20	; 11
 5ac:	7f cf       	rjmp	.-258    	; 0x4ac <.LLST2+0x2>
 5ae:	fc 01       	movw	r30, r24
 5b0:	43 81       	ldd	r20, Z+3	; 0x03
 5b2:	34 81       	ldd	r19, Z+4	; 0x04
 5b4:	83 81       	ldd	r24, Z+3	; 0x03
 5b6:	94 81       	ldd	r25, Z+4	; 0x04
 5b8:	98 27       	eor	r25, r24
 5ba:	89 27       	eor	r24, r25
 5bc:	98 27       	eor	r25, r24
 5be:	22 81       	ldd	r18, Z+2	; 0x02
 5c0:	20 33       	cpi	r18, 0x30	; 48
 5c2:	39 f4       	brne	.+14     	; 0x5d2 <.Ldebug_abbrev0+0x30>
 5c4:	33 70       	andi	r19, 0x03	; 3
 5c6:	e3 2f       	mov	r30, r19
 5c8:	f0 e0       	ldi	r31, 0x00	; 0
 5ca:	ee 5f       	subi	r30, 0xFE	; 254
 5cc:	fe 4f       	sbci	r31, 0xFE	; 254
 5ce:	80 81       	ld	r24, Z
 5d0:	08 95       	ret
 5d2:	28 35       	cpi	r18, 0x58	; 88
 5d4:	61 f4       	brne	.+24     	; 0x5ee <.Ldebug_abbrev0+0x4c>
 5d6:	89 e0       	ldi	r24, 0x09	; 9
 5d8:	e1 e0       	ldi	r30, 0x01	; 1
 5da:	f0 e0       	ldi	r31, 0x00	; 0
 5dc:	41 15       	cp	r20, r1
 5de:	71 f0       	breq	.+28     	; 0x5fc <.Ldebug_info0+0x8>
 5e0:	89 e0       	ldi	r24, 0x09	; 9
 5e2:	e3 e0       	ldi	r30, 0x03	; 3
 5e4:	f0 e0       	ldi	r31, 0x00	; 0
 5e6:	48 30       	cpi	r20, 0x08	; 8
 5e8:	49 f0       	breq	.+18     	; 0x5fc <.Ldebug_info0+0x8>
 5ea:	80 e0       	ldi	r24, 0x00	; 0
 5ec:	08 95       	ret
 5ee:	20 35       	cpi	r18, 0x50	; 80
 5f0:	79 f4       	brne	.+30     	; 0x610 <.Ldebug_info0+0x1c>
 5f2:	41 11       	cpse	r20, r1
 5f4:	07 c0       	rjmp	.+14     	; 0x604 <.Ldebug_info0+0x10>
 5f6:	89 e0       	ldi	r24, 0x09	; 9
 5f8:	e0 e0       	ldi	r30, 0x00	; 0
 5fa:	f0 e0       	ldi	r31, 0x00	; 0
 5fc:	80 93 57 00 	sts	0x0057, r24	; 0x800057 <__TEXT_REGION_LENGTH__+0x7e0057>
 600:	84 91       	lpm	r24, Z
 602:	08 95       	ret
 604:	48 30       	cpi	r20, 0x08	; 8
 606:	89 f7       	brne	.-30     	; 0x5ea <.Ldebug_abbrev0+0x48>
 608:	89 e0       	ldi	r24, 0x09	; 9
 60a:	e2 e0       	ldi	r30, 0x02	; 2
 60c:	f0 e0       	ldi	r31, 0x00	; 0
 60e:	f6 cf       	rjmp	.-20     	; 0x5fc <.Ldebug_info0+0x8>
 610:	20 32       	cpi	r18, 0x20	; 32
 612:	29 f4       	brne	.+10     	; 0x61e <.Ldebug_info0+0x2a>
 614:	88 0f       	add	r24, r24
 616:	99 1f       	adc	r25, r25
 618:	fc 01       	movw	r30, r24
 61a:	84 91       	lpm	r24, Z
 61c:	08 95       	ret
 61e:	28 32       	cpi	r18, 0x28	; 40
 620:	29 f4       	brne	.+10     	; 0x62c <.Ldebug_info0+0x38>
 622:	88 0f       	add	r24, r24
 624:	99 1f       	adc	r25, r25
 626:	fc 01       	movw	r30, r24
 628:	31 96       	adiw	r30, 0x01	; 1
 62a:	f7 cf       	rjmp	.-18     	; 0x61a <.Ldebug_info0+0x26>
 62c:	20 3a       	cpi	r18, 0xA0	; 160
 62e:	09 f4       	brne	.+2      	; 0x632 <.Ldebug_info0+0x3e>
 630:	27 c2       	rjmp	.+1102   	; 0xa80 <__stack+0x181>
 632:	20 3c       	cpi	r18, 0xC0	; 192
 634:	19 f4       	brne	.+6      	; 0x63c <.Ldebug_info0+0x48>
 636:	65 81       	ldd	r22, Z+5	; 0x05
 638:	2b d2       	rcall	.+1110   	; 0xa90 <__stack+0x191>
 63a:	d7 cf       	rjmp	.-82     	; 0x5ea <.Ldebug_abbrev0+0x48>
 63c:	2f 3f       	cpi	r18, 0xFF	; 255
 63e:	a9 f6       	brne	.-86     	; 0x5ea <.Ldebug_abbrev0+0x48>
 640:	81 ef       	ldi	r24, 0xF1	; 241
 642:	80 93 39 01 	sts	0x0139, r24	; 0x800139 <_end+0x37>
 646:	d1 cf       	rjmp	.-94     	; 0x5ea <.Ldebug_abbrev0+0x48>
 648:	1a b8       	out	0x0a, r1	; 10
 64a:	80 e1       	ldi	r24, 0x10	; 16
 64c:	8b b9       	out	0x0b, r24	; 11
 64e:	81 e0       	ldi	r24, 0x01	; 1
 650:	85 bf       	out	0x35, r24	; 53
 652:	82 e0       	ldi	r24, 0x02	; 2
 654:	85 bf       	out	0x35, r24	; 53
 656:	e0 e0       	ldi	r30, 0x00	; 0
 658:	f1 e7       	ldi	r31, 0x71	; 113
 65a:	a8 95       	wdr
 65c:	31 97       	sbiw	r30, 0x01	; 1
 65e:	80 40       	sbci	r24, 0x00	; 0
 660:	e1 f7       	brne	.-8      	; 0x65a <.Ldebug_info0+0x66>
 662:	80 91 3b 01 	lds	r24, 0x013B	; 0x80013b <_end+0x39>
 666:	87 7f       	andi	r24, 0xF7	; 247
 668:	81 11       	cpse	r24, r1
 66a:	04 c0       	rjmp	.+8      	; 0x674 <.Ldebug_info0+0x80>
 66c:	80 91 3c 01 	lds	r24, 0x013C	; 0x80013c <_end+0x3a>
 670:	81 15       	cp	r24, r1
 672:	71 f0       	breq	.+28     	; 0x690 <.Ldebug_info0+0x9c>
 674:	4c 9b       	sbis	0x09, 4	; 9
 676:	0c c0       	rjmp	.+24     	; 0x690 <.Ldebug_info0+0x9c>
 678:	f8 94       	cli
 67a:	53 9a       	sbi	0x0a, 3	; 10
 67c:	1b b8       	out	0x0b, r1	; 11
 67e:	1d ba       	out	0x1d, r1	; 29
 680:	10 92 69 00 	sts	0x0069, r1	; 0x800069 <__DATA_REGION_ORIGIN__+0x9>
 684:	81 e0       	ldi	r24, 0x01	; 1
 686:	85 bf       	out	0x35, r24	; 53
 688:	15 be       	out	0x35, r1	; 53
 68a:	e0 e0       	ldi	r30, 0x00	; 0
 68c:	f0 e0       	ldi	r31, 0x00	; 0
 68e:	09 95       	icall
 690:	8e ef       	ldi	r24, 0xFE	; 254
 692:	80 93 39 01 	sts	0x0139, r24	; 0x800139 <_end+0x37>
 696:	14 be       	out	0x34, r1	; 52
 698:	0f b6       	in	r0, 0x3f	; 63
 69a:	f8 94       	cli
 69c:	a8 95       	wdr
 69e:	80 91 60 00 	lds	r24, 0x0060	; 0x800060 <__DATA_REGION_ORIGIN__>
 6a2:	88 61       	ori	r24, 0x18	; 24
 6a4:	80 93 60 00 	sts	0x0060, r24	; 0x800060 <__DATA_REGION_ORIGIN__>
 6a8:	10 92 60 00 	sts	0x0060, r1	; 0x800060 <__DATA_REGION_ORIGIN__>
 6ac:	0f be       	out	0x3f, r0	; 63
 6ae:	80 91 69 00 	lds	r24, 0x0069	; 0x800069 <__DATA_REGION_ORIGIN__+0x9>
 6b2:	82 60       	ori	r24, 0x02	; 2
 6b4:	80 93 69 00 	sts	0x0069, r24	; 0x800069 <__DATA_REGION_ORIGIN__+0x9>
 6b8:	e8 9a       	sbi	0x1d, 0	; 29
 6ba:	53 9a       	sbi	0x0a, 3	; 10
 6bc:	8c e0       	ldi	r24, 0x0C	; 12
 6be:	e0 e0       	ldi	r30, 0x00	; 0
 6c0:	f5 e3       	ldi	r31, 0x35	; 53
 6c2:	a8 95       	wdr
 6c4:	31 97       	sbiw	r30, 0x01	; 1
 6c6:	80 40       	sbci	r24, 0x00	; 0
 6c8:	e1 f7       	brne	.-8      	; 0x6c2 <.Ldebug_info0+0xce>
 6ca:	53 98       	cbi	0x0a, 3	; 10
 6cc:	78 94       	sei
 6ce:	10 91 15 01 	lds	r17, 0x0115	; 0x800115 <_end+0x13>
 6d2:	13 50       	subi	r17, 0x03	; 3
 6d4:	17 fd       	sbrc	r17, 7
 6d6:	5a c0       	rjmp	.+180    	; 0x78c <.Ldebug_info0+0x198>
 6d8:	80 91 19 01 	lds	r24, 0x0119	; 0x800119 <_end+0x17>
 6dc:	cc e0       	ldi	r28, 0x0C	; 12
 6de:	d0 e0       	ldi	r29, 0x00	; 0
 6e0:	c8 1b       	sub	r28, r24
 6e2:	d1 09       	sbc	r29, r1
 6e4:	c6 5e       	subi	r28, 0xE6	; 230
 6e6:	de 4f       	sbci	r29, 0xFE	; 254
 6e8:	80 91 13 01 	lds	r24, 0x0113	; 0x800113 <_end+0x11>
 6ec:	8d 32       	cpi	r24, 0x2D	; 45
 6ee:	09 f0       	breq	.+2      	; 0x6f2 <.Ldebug_info0+0xfe>
 6f0:	0d c1       	rjmp	.+538    	; 0x90c <__stack+0xd>
 6f2:	18 30       	cpi	r17, 0x08	; 8
 6f4:	09 f0       	breq	.+2      	; 0x6f8 <.Ldebug_info0+0x104>
 6f6:	48 c0       	rjmp	.+144    	; 0x788 <.Ldebug_info0+0x194>
 6f8:	83 ec       	ldi	r24, 0xC3	; 195
 6fa:	80 93 08 01 	sts	0x0108, r24	; 0x800108 <_end+0x6>
 6fe:	8a e5       	ldi	r24, 0x5A	; 90
 700:	80 93 01 01 	sts	0x0101, r24	; 0x800101 <new_firmware+0x1>
 704:	10 92 3a 01 	sts	0x013A, r1	; 0x80013a <_end+0x38>
 708:	38 81       	ld	r19, Y
 70a:	83 2f       	mov	r24, r19
 70c:	80 76       	andi	r24, 0x60	; 96
 70e:	99 81       	ldd	r25, Y+1	; 0x01
 710:	81 15       	cp	r24, r1
 712:	09 f4       	brne	.+2      	; 0x716 <.Ldebug_info0+0x122>
 714:	9d c0       	rjmp	.+314    	; 0x850 <.Ldebug_info0+0x25c>
 716:	40 e3       	ldi	r20, 0x30	; 48
 718:	51 e0       	ldi	r21, 0x01	; 1
 71a:	50 93 07 01 	sts	0x0107, r21	; 0x800107 <_end+0x5>
 71e:	40 93 06 01 	sts	0x0106, r20	; 0x800106 <_end+0x4>
 722:	93 30       	cpi	r25, 0x03	; 3
 724:	69 f4       	brne	.+26     	; 0x740 <.Ldebug_info0+0x14c>
 726:	ce 01       	movw	r24, r28
 728:	42 df       	rcall	.-380    	; 0x5ae <.Ldebug_abbrev0+0xc>
 72a:	80 93 33 01 	sts	0x0133, r24	; 0x800133 <_end+0x31>
 72e:	84 e0       	ldi	r24, 0x04	; 4
 730:	9f 81       	ldd	r25, Y+7	; 0x07
 732:	91 11       	cpse	r25, r1
 734:	27 c0       	rjmp	.+78     	; 0x784 <.Ldebug_info0+0x190>
 736:	9e 81       	ldd	r25, Y+6	; 0x06
 738:	98 17       	cp	r25, r24
 73a:	20 f5       	brcc	.+72     	; 0x784 <.Ldebug_info0+0x190>
 73c:	89 2f       	mov	r24, r25
 73e:	22 c0       	rjmp	.+68     	; 0x784 <.Ldebug_info0+0x190>
 740:	95 30       	cpi	r25, 0x05	; 5
 742:	09 f4       	brne	.+2      	; 0x746 <.Ldebug_info0+0x152>
 744:	e1 c0       	rjmp	.+450    	; 0x908 <__stack+0x9>
 746:	9a 30       	cpi	r25, 0x0A	; 10
 748:	09 f4       	brne	.+2      	; 0x74c <.Ldebug_info0+0x158>
 74a:	de c0       	rjmp	.+444    	; 0x908 <__stack+0x9>
 74c:	8c ef       	ldi	r24, 0xFC	; 252
 74e:	89 0f       	add	r24, r25
 750:	86 30       	cpi	r24, 0x06	; 6
 752:	08 f0       	brcs	.+2      	; 0x756 <.Ldebug_info0+0x162>
 754:	72 c0       	rjmp	.+228    	; 0x83a <.Ldebug_info0+0x246>
 756:	4a 81       	ldd	r20, Y+2	; 0x02
 758:	5b 81       	ldd	r21, Y+3	; 0x03
 75a:	50 93 38 01 	sts	0x0138, r21	; 0x800138 <_end+0x36>
 75e:	40 93 37 01 	sts	0x0137, r20	; 0x800137 <_end+0x35>
 762:	99 30       	cpi	r25, 0x09	; 9
 764:	09 f4       	brne	.+2      	; 0x768 <.Ldebug_info0+0x174>
 766:	70 c0       	rjmp	.+224    	; 0x848 <.Ldebug_info0+0x254>
 768:	8e 81       	ldd	r24, Y+6	; 0x06
 76a:	80 93 36 01 	sts	0x0136, r24	; 0x800136 <_end+0x34>
 76e:	2d 81       	ldd	r18, Y+5	; 0x05
 770:	22 70       	andi	r18, 0x02	; 2
 772:	20 93 35 01 	sts	0x0135, r18	; 0x800135 <_end+0x33>
 776:	90 93 34 01 	sts	0x0134, r25	; 0x800134 <_end+0x32>
 77a:	37 ff       	sbrs	r19, 7
 77c:	8f ef       	ldi	r24, 0xFF	; 255
 77e:	90 e8       	ldi	r25, 0x80	; 128
 780:	90 93 3a 01 	sts	0x013A, r25	; 0x80013a <_end+0x38>
 784:	80 93 00 01 	sts	0x0100, r24	; 0x800100 <new_firmware>
 788:	10 92 15 01 	sts	0x0115, r1	; 0x800115 <_end+0x13>
 78c:	80 91 01 01 	lds	r24, 0x0101	; 0x800101 <new_firmware+0x1>
 790:	84 ff       	sbrs	r24, 4
 792:	37 c0       	rjmp	.+110    	; 0x802 <.Ldebug_info0+0x20e>
 794:	c0 91 00 01 	lds	r28, 0x0100	; 0x800100 <new_firmware>
 798:	cf 3f       	cpi	r28, 0xFF	; 255
 79a:	99 f1       	breq	.+102    	; 0x802 <.Ldebug_info0+0x20e>
 79c:	8c 2f       	mov	r24, r28
 79e:	c9 30       	cpi	r28, 0x09	; 9
 7a0:	08 f0       	brcs	.+2      	; 0x7a4 <.Ldebug_info0+0x1b0>
 7a2:	88 e0       	ldi	r24, 0x08	; 8
 7a4:	9c 2f       	mov	r25, r28
 7a6:	98 1b       	sub	r25, r24
 7a8:	90 93 00 01 	sts	0x0100, r25	; 0x800100 <new_firmware>
 7ac:	90 91 08 01 	lds	r25, 0x0108	; 0x800108 <_end+0x6>
 7b0:	28 e8       	ldi	r18, 0x88	; 136
 7b2:	92 27       	eor	r25, r18
 7b4:	90 93 08 01 	sts	0x0108, r25	; 0x800108 <_end+0x6>
 7b8:	c1 15       	cp	r28, r1
 7ba:	b1 f0       	breq	.+44     	; 0x7e8 <.Ldebug_info0+0x1f4>
 7bc:	30 91 3a 01 	lds	r19, 0x013A	; 0x80013a <_end+0x38>
 7c0:	37 ff       	sbrs	r19, 7
 7c2:	2f c1       	rjmp	.+606    	; 0xa22 <__stack+0x123>
 7c4:	90 91 36 01 	lds	r25, 0x0136	; 0x800136 <_end+0x34>
 7c8:	c8 2f       	mov	r28, r24
 7ca:	98 17       	cp	r25, r24
 7cc:	08 f4       	brcc	.+2      	; 0x7d0 <.Ldebug_info0+0x1dc>
 7ce:	c9 2f       	mov	r28, r25
 7d0:	9c 1b       	sub	r25, r28
 7d2:	90 93 36 01 	sts	0x0136, r25	; 0x800136 <_end+0x34>
 7d6:	d0 90 34 01 	lds	r13, 0x0134	; 0x800134 <_end+0x32>
 7da:	d0 e0       	ldi	r29, 0x00	; 0
 7dc:	89 e0       	ldi	r24, 0x09	; 9
 7de:	e8 2e       	mov	r14, r24
 7e0:	81 e0       	ldi	r24, 0x01	; 1
 7e2:	f8 2e       	mov	r15, r24
 7e4:	cd 13       	cpse	r28, r29
 7e6:	06 c1       	rjmp	.+524    	; 0x9f4 <__stack+0xf5>
 7e8:	6c 2f       	mov	r22, r28
 7ea:	89 e0       	ldi	r24, 0x09	; 9
 7ec:	91 e0       	ldi	r25, 0x01	; 1
 7ee:	c7 dd       	rcall	.-1138   	; 0x37e <.LLST15+0x2c>
 7f0:	84 e0       	ldi	r24, 0x04	; 4
 7f2:	8c 0f       	add	r24, r28
 7f4:	c8 30       	cpi	r28, 0x08	; 8
 7f6:	19 f0       	breq	.+6      	; 0x7fe <.Ldebug_info0+0x20a>
 7f8:	9f ef       	ldi	r25, 0xFF	; 255
 7fa:	90 93 00 01 	sts	0x0100, r25	; 0x800100 <new_firmware>
 7fe:	80 93 01 01 	sts	0x0101, r24	; 0x800101 <new_firmware+0x1>
 802:	84 e1       	ldi	r24, 0x14	; 20
 804:	99 b1       	in	r25, 0x09	; 9
 806:	9c 70       	andi	r25, 0x0C	; 12
 808:	91 11       	cpse	r25, r1
 80a:	06 c0       	rjmp	.+12     	; 0x818 <.Ldebug_info0+0x224>
 80c:	8a 95       	dec	r24
 80e:	d1 f7       	brne	.-12     	; 0x804 <.Ldebug_info0+0x210>
 810:	10 92 17 01 	sts	0x0117, r1	; 0x800117 <_end+0x15>
 814:	10 92 18 01 	sts	0x0118, r1	; 0x800118 <_end+0x16>
 818:	80 91 39 01 	lds	r24, 0x0139	; 0x800139 <_end+0x37>
 81c:	80 31       	cpi	r24, 0x10	; 16
 81e:	08 f4       	brcc	.+2      	; 0x822 <.Ldebug_info0+0x22e>
 820:	24 c1       	rjmp	.+584    	; 0xa6a <__stack+0x16b>
 822:	4c 9b       	sbis	0x09, 4	; 9
 824:	05 c0       	rjmp	.+10     	; 0x830 <.Ldebug_info0+0x23c>
 826:	80 91 39 01 	lds	r24, 0x0139	; 0x800139 <_end+0x37>
 82a:	80 51       	subi	r24, 0x10	; 16
 82c:	80 93 39 01 	sts	0x0139, r24	; 0x800139 <_end+0x37>
 830:	80 91 39 01 	lds	r24, 0x0139	; 0x800139 <_end+0x37>
 834:	81 11       	cpse	r24, r1
 836:	4b cf       	rjmp	.-362    	; 0x6ce <.Ldebug_info0+0xda>
 838:	1f cf       	rjmp	.-450    	; 0x678 <.Ldebug_info0+0x84>
 83a:	80 91 39 01 	lds	r24, 0x0139	; 0x800139 <_end+0x37>
 83e:	92 30       	cpi	r25, 0x02	; 2
 840:	29 f4       	brne	.+10     	; 0x84c <.Ldebug_info0+0x258>
 842:	8e 7f       	andi	r24, 0xFE	; 254
 844:	80 93 39 01 	sts	0x0139, r24	; 0x800139 <_end+0x37>
 848:	80 e0       	ldi	r24, 0x00	; 0
 84a:	72 cf       	rjmp	.-284    	; 0x730 <.Ldebug_info0+0x13c>
 84c:	81 60       	ori	r24, 0x01	; 1
 84e:	fa cf       	rjmp	.-12     	; 0x844 <.Ldebug_info0+0x250>
 850:	2a 81       	ldd	r18, Y+2	; 0x02
 852:	10 92 11 01 	sts	0x0111, r1	; 0x800111 <_end+0xf>
 856:	91 11       	cpse	r25, r1
 858:	0a c0       	rjmp	.+20     	; 0x86e <.Ldebug_info0+0x27a>
 85a:	10 92 12 01 	sts	0x0112, r1	; 0x800112 <_end+0x10>
 85e:	21 e1       	ldi	r18, 0x11	; 17
 860:	31 e0       	ldi	r19, 0x01	; 1
 862:	82 e0       	ldi	r24, 0x02	; 2
 864:	30 93 07 01 	sts	0x0107, r19	; 0x800107 <_end+0x5>
 868:	20 93 06 01 	sts	0x0106, r18	; 0x800106 <_end+0x4>
 86c:	61 cf       	rjmp	.-318    	; 0x730 <.Ldebug_info0+0x13c>
 86e:	95 30       	cpi	r25, 0x05	; 5
 870:	29 f4       	brne	.+10     	; 0x87c <.Ldebug_info0+0x288>
 872:	20 93 17 01 	sts	0x0117, r18	; 0x800117 <_end+0x15>
 876:	21 e1       	ldi	r18, 0x11	; 17
 878:	31 e0       	ldi	r19, 0x01	; 1
 87a:	f4 cf       	rjmp	.-24     	; 0x864 <.Ldebug_info0+0x270>
 87c:	96 30       	cpi	r25, 0x06	; 6
 87e:	99 f5       	brne	.+102    	; 0x8e6 <_binary_usbasploader_raw_size+0x5c>
 880:	9b 81       	ldd	r25, Y+3	; 0x03
 882:	91 30       	cpi	r25, 0x01	; 1
 884:	59 f4       	brne	.+22     	; 0x89c <_binary_usbasploader_raw_size+0x12>
 886:	88 e9       	ldi	r24, 0x98	; 152
 888:	90 e7       	ldi	r25, 0x70	; 112
 88a:	90 93 07 01 	sts	0x0107, r25	; 0x800107 <_end+0x5>
 88e:	80 93 06 01 	sts	0x0106, r24	; 0x800106 <_end+0x4>
 892:	82 e1       	ldi	r24, 0x12	; 18
 894:	90 e4       	ldi	r25, 0x40	; 64
 896:	90 93 3a 01 	sts	0x013A, r25	; 0x80013a <_end+0x38>
 89a:	4a cf       	rjmp	.-364    	; 0x730 <.Ldebug_info0+0x13c>
 89c:	92 30       	cpi	r25, 0x02	; 2
 89e:	19 f4       	brne	.+6      	; 0x8a6 <_binary_usbasploader_raw_size+0x1c>
 8a0:	86 e8       	ldi	r24, 0x86	; 134
 8a2:	90 e7       	ldi	r25, 0x70	; 112
 8a4:	f2 cf       	rjmp	.-28     	; 0x88a <_binary_usbasploader_raw_size>
 8a6:	93 30       	cpi	r25, 0x03	; 3
 8a8:	a9 f7       	brne	.-22     	; 0x894 <_binary_usbasploader_raw_size+0xa>
 8aa:	21 11       	cpse	r18, r1
 8ac:	08 c0       	rjmp	.+16     	; 0x8be <_binary_usbasploader_raw_size+0x34>
 8ae:	84 ed       	ldi	r24, 0xD4	; 212
 8b0:	90 e7       	ldi	r25, 0x70	; 112
 8b2:	90 93 07 01 	sts	0x0107, r25	; 0x800107 <_end+0x5>
 8b6:	80 93 06 01 	sts	0x0106, r24	; 0x800106 <_end+0x4>
 8ba:	84 e0       	ldi	r24, 0x04	; 4
 8bc:	eb cf       	rjmp	.-42     	; 0x894 <_binary_usbasploader_raw_size+0xa>
 8be:	21 30       	cpi	r18, 0x01	; 1
 8c0:	41 f4       	brne	.+16     	; 0x8d2 <_binary_usbasploader_raw_size+0x48>
 8c2:	88 eb       	ldi	r24, 0xB8	; 184
 8c4:	90 e7       	ldi	r25, 0x70	; 112
 8c6:	90 93 07 01 	sts	0x0107, r25	; 0x800107 <_end+0x5>
 8ca:	80 93 06 01 	sts	0x0106, r24	; 0x800106 <_end+0x4>
 8ce:	8c e1       	ldi	r24, 0x1C	; 28
 8d0:	e1 cf       	rjmp	.-62     	; 0x894 <_binary_usbasploader_raw_size+0xa>
 8d2:	22 30       	cpi	r18, 0x02	; 2
 8d4:	f9 f6       	brne	.-66     	; 0x894 <_binary_usbasploader_raw_size+0xa>
 8d6:	8a ea       	ldi	r24, 0xAA	; 170
 8d8:	90 e7       	ldi	r25, 0x70	; 112
 8da:	90 93 07 01 	sts	0x0107, r25	; 0x800107 <_end+0x5>
 8de:	80 93 06 01 	sts	0x0106, r24	; 0x800106 <_end+0x4>
 8e2:	8e e0       	ldi	r24, 0x0E	; 14
 8e4:	d7 cf       	rjmp	.-82     	; 0x894 <_binary_usbasploader_raw_size+0xa>
 8e6:	98 30       	cpi	r25, 0x08	; 8
 8e8:	59 f0       	breq	.+22     	; 0x900 <__stack+0x1>
 8ea:	99 30       	cpi	r25, 0x09	; 9
 8ec:	19 f4       	brne	.+6      	; 0x8f4 <_binary_usbasploader_raw_size+0x6a>
 8ee:	20 93 16 01 	sts	0x0116, r18	; 0x800116 <_end+0x14>
 8f2:	c1 cf       	rjmp	.-126    	; 0x876 <.Ldebug_info0+0x282>
 8f4:	81 e0       	ldi	r24, 0x01	; 1
 8f6:	9a 30       	cpi	r25, 0x0A	; 10
 8f8:	09 f4       	brne	.+2      	; 0x8fc <_binary_usbasploader_raw_size+0x72>
 8fa:	bd cf       	rjmp	.-134    	; 0x876 <.Ldebug_info0+0x282>
 8fc:	80 e0       	ldi	r24, 0x00	; 0
 8fe:	bb cf       	rjmp	.-138    	; 0x876 <.Ldebug_info0+0x282>
 900:	26 e1       	ldi	r18, 0x16	; 22
 902:	31 e0       	ldi	r19, 0x01	; 1
 904:	81 e0       	ldi	r24, 0x01	; 1
 906:	ae cf       	rjmp	.-164    	; 0x864 <.Ldebug_info0+0x270>
 908:	81 e0       	ldi	r24, 0x01	; 1
 90a:	12 cf       	rjmp	.-476    	; 0x730 <.Ldebug_info0+0x13c>
 90c:	80 91 3a 01 	lds	r24, 0x013A	; 0x80013a <_end+0x38>
 910:	87 ff       	sbrs	r24, 7
 912:	3a cf       	rjmp	.-396    	; 0x788 <.Ldebug_info0+0x194>
 914:	00 91 36 01 	lds	r16, 0x0136	; 0x800136 <_end+0x34>
 918:	01 17       	cp	r16, r17
 91a:	08 f4       	brcc	.+2      	; 0x91e <__stack+0x1f>
 91c:	10 2f       	mov	r17, r16
 91e:	01 1b       	sub	r16, r17
 920:	00 93 36 01 	sts	0x0136, r16	; 0x800136 <_end+0x34>
 924:	f1 2c       	mov	r15, r1
 926:	f1 16       	cp	r15, r17
 928:	28 f0       	brcs	.+10     	; 0x934 <__stack+0x35>
 92a:	01 11       	cpse	r16, r1
 92c:	2d cf       	rjmp	.-422    	; 0x788 <.Ldebug_info0+0x194>
 92e:	10 92 00 01 	sts	0x0100, r1	; 0x800100 <new_firmware>
 932:	2a cf       	rjmp	.-428    	; 0x788 <.Ldebug_info0+0x194>
 934:	80 91 37 01 	lds	r24, 0x0137	; 0x800137 <_end+0x35>
 938:	90 91 38 01 	lds	r25, 0x0138	; 0x800138 <_end+0x36>
 93c:	20 91 34 01 	lds	r18, 0x0134	; 0x800134 <_end+0x32>
 940:	27 30       	cpi	r18, 0x07	; 7
 942:	58 f0       	brcs	.+22     	; 0x95a <__stack+0x5b>
 944:	69 91       	ld	r22, Y+
 946:	9c 01       	movw	r18, r24
 948:	2f 5f       	subi	r18, 0xFF	; 255
 94a:	3f 4f       	sbci	r19, 0xFF	; 255
 94c:	30 93 38 01 	sts	0x0138, r19	; 0x800138 <_end+0x36>
 950:	20 93 37 01 	sts	0x0137, r18	; 0x800137 <_end+0x35>
 954:	9d d0       	rcall	.+314    	; 0xa90 <__stack+0x191>
 956:	f3 94       	inc	r15
 958:	e6 cf       	rjmp	.-52     	; 0x926 <__stack+0x27>
 95a:	81 15       	cp	r24, r1
 95c:	90 47       	sbci	r25, 0x70	; 112
 95e:	38 f7       	brcc	.-50     	; 0x92e <__stack+0x2f>
 960:	f3 94       	inc	r15
 962:	f3 94       	inc	r15
 964:	f8 94       	cli
 966:	e0 91 37 01 	lds	r30, 0x0137	; 0x800137 <_end+0x35>
 96a:	f0 91 38 01 	lds	r31, 0x0138	; 0x800138 <_end+0x36>
 96e:	28 81       	ld	r18, Y
 970:	39 81       	ldd	r19, Y+1	; 0x01
 972:	81 e0       	ldi	r24, 0x01	; 1
 974:	09 01       	movw	r0, r18
 976:	80 93 57 00 	sts	0x0057, r24	; 0x800057 <__TEXT_REGION_LENGTH__+0x7e0057>
 97a:	e8 95       	spm
 97c:	11 24       	eor	r1, r1
 97e:	78 94       	sei
 980:	80 91 37 01 	lds	r24, 0x0137	; 0x800137 <_end+0x35>
 984:	90 91 38 01 	lds	r25, 0x0138	; 0x800138 <_end+0x36>
 988:	02 96       	adiw	r24, 0x02	; 2
 98a:	90 93 38 01 	sts	0x0138, r25	; 0x800138 <_end+0x36>
 98e:	80 93 37 01 	sts	0x0137, r24	; 0x800137 <_end+0x35>
 992:	8f 77       	andi	r24, 0x7F	; 127
 994:	99 27       	eor	r25, r25
 996:	89 2b       	or	r24, r25
 998:	51 f0       	breq	.+20     	; 0x9ae <__stack+0xaf>
 99a:	01 11       	cpse	r16, r1
 99c:	02 c0       	rjmp	.+4      	; 0x9a2 <__stack+0xa3>
 99e:	f1 16       	cp	r15, r17
 9a0:	10 f4       	brcc	.+4      	; 0x9a6 <__stack+0xa7>
 9a2:	22 96       	adiw	r28, 0x02	; 2
 9a4:	c0 cf       	rjmp	.-128    	; 0x926 <__stack+0x27>
 9a6:	80 91 35 01 	lds	r24, 0x0135	; 0x800135 <_end+0x33>
 9aa:	81 15       	cp	r24, r1
 9ac:	d1 f3       	breq	.-12     	; 0x9a2 <__stack+0xa3>
 9ae:	f8 94       	cli
 9b0:	e0 91 37 01 	lds	r30, 0x0137	; 0x800137 <_end+0x35>
 9b4:	f0 91 38 01 	lds	r31, 0x0138	; 0x800138 <_end+0x36>
 9b8:	32 97       	sbiw	r30, 0x02	; 2
 9ba:	83 e0       	ldi	r24, 0x03	; 3
 9bc:	80 93 57 00 	sts	0x0057, r24	; 0x800057 <__TEXT_REGION_LENGTH__+0x7e0057>
 9c0:	e8 95       	spm
 9c2:	78 94       	sei
 9c4:	07 b6       	in	r0, 0x37	; 55
 9c6:	00 fc       	sbrc	r0, 0
 9c8:	fd cf       	rjmp	.-6      	; 0x9c4 <__stack+0xc5>
 9ca:	f8 94       	cli
 9cc:	e0 91 37 01 	lds	r30, 0x0137	; 0x800137 <_end+0x35>
 9d0:	f0 91 38 01 	lds	r31, 0x0138	; 0x800138 <_end+0x36>
 9d4:	32 97       	sbiw	r30, 0x02	; 2
 9d6:	85 e0       	ldi	r24, 0x05	; 5
 9d8:	80 93 57 00 	sts	0x0057, r24	; 0x800057 <__TEXT_REGION_LENGTH__+0x7e0057>
 9dc:	e8 95       	spm
 9de:	78 94       	sei
 9e0:	07 b6       	in	r0, 0x37	; 55
 9e2:	00 fc       	sbrc	r0, 0
 9e4:	fd cf       	rjmp	.-6      	; 0x9e0 <__stack+0xe1>
 9e6:	f8 94       	cli
 9e8:	81 e1       	ldi	r24, 0x11	; 17
 9ea:	80 93 57 00 	sts	0x0057, r24	; 0x800057 <__TEXT_REGION_LENGTH__+0x7e0057>
 9ee:	e8 95       	spm
 9f0:	78 94       	sei
 9f2:	d7 cf       	rjmp	.-82     	; 0x9a2 <__stack+0xa3>
 9f4:	00 91 37 01 	lds	r16, 0x0137	; 0x800137 <_end+0x35>
 9f8:	10 91 38 01 	lds	r17, 0x0138	; 0x800138 <_end+0x36>
 9fc:	27 e0       	ldi	r18, 0x07	; 7
 9fe:	d2 16       	cp	r13, r18
 a00:	68 f0       	brcs	.+26     	; 0xa1c <__stack+0x11d>
 a02:	c8 01       	movw	r24, r16
 a04:	3d d0       	rcall	.+122    	; 0xa80 <__stack+0x181>
 a06:	f7 01       	movw	r30, r14
 a08:	81 93       	st	Z+, r24
 a0a:	7f 01       	movw	r14, r30
 a0c:	0f 5f       	subi	r16, 0xFF	; 255
 a0e:	1f 4f       	sbci	r17, 0xFF	; 255
 a10:	10 93 38 01 	sts	0x0138, r17	; 0x800138 <_end+0x36>
 a14:	00 93 37 01 	sts	0x0137, r16	; 0x800137 <_end+0x35>
 a18:	df 5f       	subi	r29, 0xFF	; 255
 a1a:	e4 ce       	rjmp	.-568    	; 0x7e4 <.Ldebug_info0+0x1f0>
 a1c:	f8 01       	movw	r30, r16
 a1e:	84 91       	lpm	r24, Z
 a20:	f2 cf       	rjmp	.-28     	; 0xa06 <__stack+0x107>
 a22:	90 91 06 01 	lds	r25, 0x0106	; 0x800106 <_end+0x4>
 a26:	20 91 07 01 	lds	r18, 0x0107	; 0x800107 <_end+0x5>
 a2a:	48 2f       	mov	r20, r24
 a2c:	49 0f       	add	r20, r25
 a2e:	e9 2f       	mov	r30, r25
 a30:	f2 2f       	mov	r31, r18
 a32:	36 ff       	sbrs	r19, 6
 a34:	10 c0       	rjmp	.+32     	; 0xa56 <__stack+0x157>
 a36:	29 e0       	ldi	r18, 0x09	; 9
 a38:	31 e0       	ldi	r19, 0x01	; 1
 a3a:	94 91       	lpm	r25, Z
 a3c:	d9 01       	movw	r26, r18
 a3e:	9c 93       	st	X, r25
 a40:	2f 5f       	subi	r18, 0xFF	; 255
 a42:	3f 4f       	sbci	r19, 0xFF	; 255
 a44:	31 96       	adiw	r30, 0x01	; 1
 a46:	4e 13       	cpse	r20, r30
 a48:	f8 cf       	rjmp	.-16     	; 0xa3a <__stack+0x13b>
 a4a:	f0 93 07 01 	sts	0x0107, r31	; 0x800107 <_end+0x5>
 a4e:	e0 93 06 01 	sts	0x0106, r30	; 0x800106 <_end+0x4>
 a52:	c8 2f       	mov	r28, r24
 a54:	c9 ce       	rjmp	.-622    	; 0x7e8 <.Ldebug_info0+0x1f4>
 a56:	29 e0       	ldi	r18, 0x09	; 9
 a58:	31 e0       	ldi	r19, 0x01	; 1
 a5a:	d9 01       	movw	r26, r18
 a5c:	91 91       	ld	r25, Z+
 a5e:	9c 93       	st	X, r25
 a60:	2f 5f       	subi	r18, 0xFF	; 255
 a62:	3f 4f       	sbci	r19, 0xFF	; 255
 a64:	4e 13       	cpse	r20, r30
 a66:	f9 cf       	rjmp	.-14     	; 0xa5a <__stack+0x15b>
 a68:	f0 cf       	rjmp	.-32     	; 0xa4a <__stack+0x14b>
 a6a:	4c 99       	sbic	0x09, 4	; 9
 a6c:	e1 ce       	rjmp	.-574    	; 0x830 <.Ldebug_info0+0x23c>
 a6e:	80 91 39 01 	lds	r24, 0x0139	; 0x800139 <_end+0x37>
 a72:	82 30       	cpi	r24, 0x02	; 2
 a74:	08 f4       	brcc	.+2      	; 0xa78 <__stack+0x179>
 a76:	dc ce       	rjmp	.-584    	; 0x830 <.Ldebug_info0+0x23c>
 a78:	80 91 39 01 	lds	r24, 0x0139	; 0x800139 <_end+0x37>
 a7c:	82 50       	subi	r24, 0x02	; 2
 a7e:	d6 ce       	rjmp	.-596    	; 0x82c <.Ldebug_info0+0x238>
 a80:	f9 99       	sbic	0x1f, 1	; 31
 a82:	fe cf       	rjmp	.-4      	; 0xa80 <__stack+0x181>
 a84:	92 bd       	out	0x22, r25	; 34
 a86:	81 bd       	out	0x21, r24	; 33
 a88:	f8 9a       	sbi	0x1f, 0	; 31
 a8a:	99 27       	eor	r25, r25
 a8c:	80 b5       	in	r24, 0x20	; 32
 a8e:	08 95       	ret
 a90:	26 2f       	mov	r18, r22
 a92:	f9 99       	sbic	0x1f, 1	; 31
 a94:	fe cf       	rjmp	.-4      	; 0xa92 <__stack+0x193>
 a96:	1f ba       	out	0x1f, r1	; 31
 a98:	92 bd       	out	0x22, r25	; 34
 a9a:	81 bd       	out	0x21, r24	; 33
 a9c:	20 bd       	out	0x20, r18	; 32
 a9e:	0f b6       	in	r0, 0x3f	; 63
 aa0:	f8 94       	cli
 aa2:	fa 9a       	sbi	0x1f, 2	; 31
 aa4:	f9 9a       	sbi	0x1f, 1	; 31
 aa6:	0f be       	out	0x3f, r0	; 63
 aa8:	01 96       	adiw	r24, 0x01	; 1
 aaa:	08 95       	ret
 aac:	f8 94       	cli
 aae:	ff cf       	rjmp	.-2      	; 0xaae <__stack+0x1af>
 ab0:	ff 5a       	subi	r31, 0xAF	; 175
 ab2:	1e 95 0f 00 	call	0x44001e	; 0x44001e <__TEXT_REGION_LENGTH__+0x42001e>

00000ab6 <memcpy_PF>:
 ab6:	fa 01       	movw	r30, r20
 ab8:	dc 01       	movw	r26, r24
 aba:	02 c0       	rjmp	.+4      	; 0xac0 <.L_memcpy_PF_start>

00000abc <.L_memcpy_PF_loop>:
 abc:	05 90       	lpm	r0, Z+
 abe:	0d 92       	st	X+, r0

00000ac0 <.L_memcpy_PF_start>:
 ac0:	21 50       	subi	r18, 0x01	; 1
 ac2:	30 40       	sbci	r19, 0x00	; 0
 ac4:	d8 f7       	brcc	.-10     	; 0xabc <.L_memcpy_PF_loop>
 ac6:	08 95       	ret

00000ac8 <main>:
{
 ac8:	cd b7       	in	r28, 0x3d	; 61
 aca:	de b7       	in	r29, 0x3e	; 62
 acc:	c0 58       	subi	r28, 0x80	; 128
 ace:	d1 09       	sbc	r29, r1
 ad0:	0f b6       	in	r0, 0x3f	; 63
 ad2:	f8 94       	cli
 ad4:	de bf       	out	0x3e, r29	; 62
 ad6:	0f be       	out	0x3f, r0	; 63
 ad8:	cd bf       	out	0x3d, r28	; 61

00000ada <.Loc.84>:
    MCUCSR = 0; /* do not care about previous reset - just disable the wdt */
 ada:	14 be       	out	0x34, r1	; 52

00000adc <.LBB16>:
		);
	}
	else
	{
        uint8_t register temp_reg;
		__asm__ __volatile__ (
 adc:	0f b6       	in	r0, 0x3f	; 63
 ade:	f8 94       	cli
 ae0:	a8 95       	wdr
 ae2:	80 91 60 00 	lds	r24, 0x0060	; 0x800060 <__DATA_REGION_ORIGIN__>
 ae6:	88 61       	ori	r24, 0x18	; 24
 ae8:	80 93 60 00 	sts	0x0060, r24	; 0x800060 <__DATA_REGION_ORIGIN__>
 aec:	10 92 60 00 	sts	0x0060, r1	; 0x800060 <__DATA_REGION_ORIGIN__>
 af0:	0f be       	out	0x3f, r0	; 63

00000af2 <.LBE16>:
    cli();
 af2:	f8 94       	cli

00000af4 <.LBB18>:
      a=pgm_read_word(FULLCORRECTFLASHADDRESS(&new_firmware[i]));
 af4:	40 91 00 01 	lds	r20, 0x0100	; 0x800100 <new_firmware>
 af8:	50 91 01 01 	lds	r21, 0x0101	; 0x800101 <new_firmware+0x1>

00000afc <.LVL39>:
 afc:	fa 01       	movw	r30, r20
 afe:	25 91       	lpm	r18, Z+
 b00:	34 91       	lpm	r19, Z

00000b02 <.LBB20>:
      b=pgm_read_word(NEW_BOOTLOADER_ADDRESS+i);
 b02:	e0 e0       	ldi	r30, 0x00	; 0
 b04:	f0 e7       	ldi	r31, 0x70	; 112
 b06:	85 91       	lpm	r24, Z+
 b08:	94 91       	lpm	r25, Z

00000b0a <.LVL41>:
      if (a!=b) {
 b0a:	28 17       	cp	r18, r24
 b0c:	39 07       	cpc	r19, r25
 b0e:	01 f5       	brne	.+64     	; 0xb50 <.L22>

00000b10 <.Loc.112>:
    for (i=0;i<SIZEOF_new_firmware;i+=2) {
 b10:	20 e0       	ldi	r18, 0x00	; 0
 b12:	30 e0       	ldi	r19, 0x00	; 0

00000b14 <.L23>:
 b14:	c9 01       	movw	r24, r18
 b16:	2e 5f       	subi	r18, 0xFE	; 254
 b18:	3f 4f       	sbci	r19, 0xFF	; 255

00000b1a <.Loc.114>:
 b1a:	2a 38       	cpi	r18, 0x8A	; 138
 b1c:	68 e0       	ldi	r22, 0x08	; 8
 b1e:	36 07       	cpc	r19, r22
 b20:	51 f4       	brne	.+20     	; 0xb36 <.L25>

00000b22 <.L30>:
}
 b22:	80 e0       	ldi	r24, 0x00	; 0
 b24:	90 e0       	ldi	r25, 0x00	; 0
 b26:	c0 58       	subi	r28, 0x80	; 128
 b28:	df 4f       	sbci	r29, 0xFF	; 255
 b2a:	0f b6       	in	r0, 0x3f	; 63
 b2c:	f8 94       	cli
 b2e:	de bf       	out	0x3e, r29	; 62
 b30:	0f be       	out	0x3f, r0	; 63
 b32:	cd bf       	out	0x3d, r28	; 61
 b34:	08 95       	ret

00000b36 <.L25>:
      a=pgm_read_word(FULLCORRECTFLASHADDRESS(&new_firmware[i]));
 b36:	f9 01       	movw	r30, r18
 b38:	e4 0f       	add	r30, r20
 b3a:	f5 1f       	adc	r31, r21

00000b3c <.Loc.119>:
 b3c:	65 91       	lpm	r22, Z+
 b3e:	74 91       	lpm	r23, Z

00000b40 <.Loc.121>:
      b=pgm_read_word(NEW_BOOTLOADER_ADDRESS+i);
 b40:	fc 01       	movw	r30, r24
 b42:	ee 5f       	subi	r30, 0xFE	; 254
 b44:	ff 48       	sbci	r31, 0x8F	; 143

00000b46 <.Loc.125>:
 b46:	85 91       	lpm	r24, Z+
 b48:	94 91       	lpm	r25, Z

00000b4a <.Loc.127>:
      if (a!=b) {
 b4a:	68 17       	cp	r22, r24
 b4c:	79 07       	cpc	r23, r25
 b4e:	11 f3       	breq	.-60     	; 0xb14 <.L23>

00000b50 <.L22>:
	buffer[0]=1;
 b50:	81 e0       	ldi	r24, 0x01	; 1
 b52:	89 83       	std	Y+1, r24	; 0x01

00000b54 <.Loc.133>:
 b54:	38 e6       	ldi	r19, 0x68	; 104
 b56:	83 2e       	mov	r8, r19
 b58:	30 e7       	ldi	r19, 0x70	; 112
 b5a:	93 2e       	mov	r9, r19
 b5c:	a1 2c       	mov	r10, r1
 b5e:	b1 2c       	mov	r11, r1

00000b60 <.L24>:
  mypgm_addr_t	pageaddr	= byteaddress - (byteaddress % SPM_PAGESIZE);
 b60:	b5 01       	movw	r22, r10
 b62:	a4 01       	movw	r20, r8
 b64:	40 78       	andi	r20, 0x80	; 128

00000b66 <.Loc.144>:
  mymemcpy_PF((void*)buffer, (uint_farptr_t)pageaddr, result);
 b66:	20 e8       	ldi	r18, 0x80	; 128
 b68:	30 e0       	ldi	r19, 0x00	; 0
 b6a:	ce 01       	movw	r24, r28
 b6c:	01 96       	adiw	r24, 0x01	; 1

00000b6e <.LVL54>:
 b6e:	7c 01       	movw	r14, r24
 b70:	a2 df       	rcall	.-188    	; 0xab6 <memcpy_PF>

00000b72 <.LBE25>:
	mypgm_WRITEpage(TEMP_SPM_PAGEADR+i, buffer, mypgm_readpage(funcaddr___bootloader__do_spm+i, buffer, sizeof(buffer)), do_spm);
 b72:	c5 01       	movw	r24, r10
 b74:	b4 01       	movw	r22, r8
 b76:	68 56       	subi	r22, 0x68	; 104
 b78:	72 4f       	sbci	r23, 0xF2	; 242
 b7a:	8f 4f       	sbci	r24, 0xFF	; 255
 b7c:	9f 4f       	sbci	r25, 0xFF	; 255
 b7e:	08 e4       	ldi	r16, 0x48	; 72
 b80:	10 e0       	ldi	r17, 0x00	; 0
 b82:	20 e8       	ldi	r18, 0x80	; 128
 b84:	30 e0       	ldi	r19, 0x00	; 0
 b86:	a7 01       	movw	r20, r14
 b88:	cd da       	rcall	.-2662   	; 0x124 <mypgm_WRITEpage>

00000b8a <.LVL56>:
      for (i=0;i<TEMP_SPM_BLKSIZE;i+=SPM_PAGESIZE) {
 b8a:	90 e8       	ldi	r25, 0x80	; 128
 b8c:	89 0e       	add	r8, r25
 b8e:	91 1c       	adc	r9, r1
 b90:	a1 1c       	adc	r10, r1
 b92:	b1 1c       	adc	r11, r1

00000b94 <.Loc.151>:
 b94:	68 e6       	ldi	r22, 0x68	; 104
 b96:	86 16       	cp	r8, r22
 b98:	62 e7       	ldi	r22, 0x72	; 114
 b9a:	96 06       	cpc	r9, r22
 b9c:	a1 04       	cpc	r10, r1
 b9e:	b1 04       	cpc	r11, r1
 ba0:	f9 f6       	brne	.-66     	; 0xb60 <.L24>
 ba2:	81 2c       	mov	r8, r1
 ba4:	20 e7       	ldi	r18, 0x70	; 112
 ba6:	92 2e       	mov	r9, r18
 ba8:	a1 2c       	mov	r10, r1
 baa:	b1 2c       	mov	r11, r1

00000bac <.L26>:
	memset((void*)buffer, 0xff, sizeof(buffer));
 bac:	40 e8       	ldi	r20, 0x80	; 128
 bae:	50 e0       	ldi	r21, 0x00	; 0
 bb0:	6f ef       	ldi	r22, 0xFF	; 255
 bb2:	70 e0       	ldi	r23, 0x00	; 0
 bb4:	c7 01       	movw	r24, r14
 bb6:	5e d0       	rcall	.+188    	; 0xc74 <memset>

00000bb8 <.LVL59>:
	mymemcpy_PF((void*)buffer, (uint_farptr_t)(FULLCORRECTFLASHADDRESS(&new_firmware[i])), ((SIZEOF_new_firmware-i)>sizeof(buffer))?sizeof(buffer):(SIZEOF_new_firmware-i));
 bb8:	c4 01       	movw	r24, r8
 bba:	90 57       	subi	r25, 0x70	; 112
 bbc:	40 91 00 01 	lds	r20, 0x0100	; 0x800100 <new_firmware>
 bc0:	50 91 01 01 	lds	r21, 0x0101	; 0x800101 <new_firmware+0x1>
 bc4:	48 0f       	add	r20, r24
 bc6:	59 1f       	adc	r21, r25

00000bc8 <.Loc.155>:
 bc8:	05 2e       	mov	r0, r21
 bca:	00 0c       	add	r0, r0
 bcc:	66 0b       	sbc	r22, r22
 bce:	77 0b       	sbc	r23, r23
 bd0:	20 e8       	ldi	r18, 0x80	; 128
 bd2:	30 e0       	ldi	r19, 0x00	; 0
 bd4:	c7 01       	movw	r24, r14
 bd6:	6f df       	rcall	.-290    	; 0xab6 <memcpy_PF>

00000bd8 <.LVL60>:
	mypgm_WRITEpage(NEW_BOOTLOADER_ADDRESS+i, buffer, sizeof(buffer), temp_do_spm);
 bd8:	0f e5       	ldi	r16, 0x5F	; 95
 bda:	10 e0       	ldi	r17, 0x00	; 0
 bdc:	20 e8       	ldi	r18, 0x80	; 128
 bde:	30 e0       	ldi	r19, 0x00	; 0
 be0:	a7 01       	movw	r20, r14
 be2:	c5 01       	movw	r24, r10
 be4:	b4 01       	movw	r22, r8
 be6:	9e da       	rcall	.-2756   	; 0x124 <mypgm_WRITEpage>

00000be8 <.LVL61>:
	if ((NEW_BOOTLOADER_ADDRESS+i) > (NEW_SPM_ADDRESS+TEMP_SPM_BLKSIZE)) break;
 be8:	80 e8       	ldi	r24, 0x80	; 128
 bea:	88 0e       	add	r8, r24
 bec:	91 1c       	adc	r9, r1
 bee:	a1 1c       	adc	r10, r1
 bf0:	b1 1c       	adc	r11, r1

00000bf2 <.Loc.159>:
 bf2:	81 14       	cp	r8, r1
 bf4:	93 e7       	ldi	r25, 0x73	; 115
 bf6:	99 06       	cpc	r9, r25
 bf8:	a1 04       	cpc	r10, r1
 bfa:	b1 04       	cpc	r11, r1
 bfc:	b9 f6       	brne	.-82     	; 0xbac <.L26>
 bfe:	80 e8       	ldi	r24, 0x80	; 128
 c00:	88 2e       	mov	r8, r24
 c02:	82 e7       	ldi	r24, 0x72	; 114
 c04:	98 2e       	mov	r9, r24
 c06:	a1 2c       	mov	r10, r1
 c08:	b1 2c       	mov	r11, r1

00000c0a <.Loc.160>:
 c0a:	90 e8       	ldi	r25, 0x80	; 128
 c0c:	c9 2e       	mov	r12, r25
 c0e:	92 e0       	ldi	r25, 0x02	; 2
 c10:	d9 2e       	mov	r13, r25

00000c12 <.L28>:
	memset((void*)buffer, 0xff, sizeof(buffer));
 c12:	40 e8       	ldi	r20, 0x80	; 128
 c14:	50 e0       	ldi	r21, 0x00	; 0
 c16:	6f ef       	ldi	r22, 0xFF	; 255
 c18:	70 e0       	ldi	r23, 0x00	; 0
 c1a:	c7 01       	movw	r24, r14
 c1c:	2b d0       	rcall	.+86     	; 0xc74 <memset>

00000c1e <.LVL65>:
	mymemcpy_PF((void*)buffer, (uint_farptr_t)(FULLCORRECTFLASHADDRESS(&new_firmware[i])), ((SIZEOF_new_firmware-i)>sizeof(buffer))?sizeof(buffer):(SIZEOF_new_firmware-i));
 c1e:	2a e8       	ldi	r18, 0x8A	; 138
 c20:	38 e0       	ldi	r19, 0x08	; 8
 c22:	2c 19       	sub	r18, r12
 c24:	3d 09       	sbc	r19, r13

00000c26 <.Loc.164>:
 c26:	21 38       	cpi	r18, 0x81	; 129
 c28:	31 05       	cpc	r19, r1
 c2a:	10 f0       	brcs	.+4      	; 0xc30 <.L27>
 c2c:	20 e8       	ldi	r18, 0x80	; 128
 c2e:	30 e0       	ldi	r19, 0x00	; 0

00000c30 <.L27>:
 c30:	40 91 00 01 	lds	r20, 0x0100	; 0x800100 <new_firmware>
 c34:	50 91 01 01 	lds	r21, 0x0101	; 0x800101 <new_firmware+0x1>
 c38:	4c 0d       	add	r20, r12
 c3a:	5d 1d       	adc	r21, r13

00000c3c <.Loc.166>:
 c3c:	05 2e       	mov	r0, r21
 c3e:	00 0c       	add	r0, r0
 c40:	66 0b       	sbc	r22, r22
 c42:	77 0b       	sbc	r23, r23
 c44:	c7 01       	movw	r24, r14
 c46:	37 df       	rcall	.-402    	; 0xab6 <memcpy_PF>

00000c48 <.LVL66>:
	mypgm_WRITEpage(NEW_BOOTLOADER_ADDRESS+i, buffer, sizeof(buffer), new_do_spm);
 c48:	08 e4       	ldi	r16, 0x48	; 72
 c4a:	10 e0       	ldi	r17, 0x00	; 0
 c4c:	20 e8       	ldi	r18, 0x80	; 128
 c4e:	30 e0       	ldi	r19, 0x00	; 0
 c50:	a7 01       	movw	r20, r14
 c52:	c5 01       	movw	r24, r10
 c54:	b4 01       	movw	r22, r8
 c56:	66 da       	rcall	.-2868   	; 0x124 <mypgm_WRITEpage>

00000c58 <.LVL67>:
      for (;i<SIZEOF_new_firmware;i+=SPM_PAGESIZE) {
 c58:	60 e8       	ldi	r22, 0x80	; 128
 c5a:	c6 0e       	add	r12, r22
 c5c:	d1 1c       	adc	r13, r1

00000c5e <.Loc.169>:
 c5e:	80 e8       	ldi	r24, 0x80	; 128
 c60:	88 0e       	add	r8, r24
 c62:	91 1c       	adc	r9, r1
 c64:	a1 1c       	adc	r10, r1
 c66:	b1 1c       	adc	r11, r1
 c68:	9a e8       	ldi	r25, 0x8A	; 138
 c6a:	c9 16       	cp	r12, r25
 c6c:	98 e0       	ldi	r25, 0x08	; 8
 c6e:	d9 06       	cpc	r13, r25
 c70:	80 f2       	brcs	.-96     	; 0xc12 <.L28>
 c72:	57 cf       	rjmp	.-338    	; 0xb22 <.L30>

00000c74 <memset>:
 c74:	dc 01       	movw	r26, r24
 c76:	01 c0       	rjmp	.+2      	; 0xc7a <.L_memset_start>

00000c78 <.L_memset_loop>:
 c78:	6d 93       	st	X+, r22

00000c7a <.L_memset_start>:
 c7a:	41 50       	subi	r20, 0x01	; 1
 c7c:	50 40       	sbci	r21, 0x00	; 0
 c7e:	e0 f7       	brcc	.-8      	; 0xc78 <.L_memset_loop>
 c80:	08 95       	ret

00000c82 <_exit>:
 c82:	f8 94       	cli

00000c84 <__stop_program>:
 c84:	ff cf       	rjmp	.-2      	; 0xc84 <__stop_program>
