
main.elf:     file format elf32-avr

SYMBOL TABLE:
00800100 l    d  .data	00000000 .data
00007000 l    d  .text	00000000 .text
00800106 l    d  .bss	00000000 .bss
0080013b l    d  .noinit	00000000 .noinit
00000000 l    d  .comment	00000000 .comment
00000000 l    d  .note.gnu.avr.deviceinfo	00000000 .note.gnu.avr.deviceinfo
00000000 l    d  .debug_aranges	00000000 .debug_aranges
00000000 l    d  .debug_info	00000000 .debug_info
00000000 l    d  .debug_abbrev	00000000 .debug_abbrev
00000000 l    d  .debug_line	00000000 .debug_line
00000000 l    d  .debug_frame	00000000 .debug_frame
00000000 l    d  .debug_str	00000000 .debug_str
00000000 l    d  .debug_line_str	00000000 .debug_line_str
00000000 l    d  .debug_loclists	00000000 .debug_loclists
00000000 l    d  .debug_macro	00000000 .debug_macro
00000000 l    d  .debug_rnglists	00000000 .debug_rnglists
00000000 l    df *ABS*	00000000 main.c
0000003e l       *ABS*	00000000 __SP_H__
0000003d l       *ABS*	00000000 __SP_L__
0000003f l       *ABS*	00000000 __SREG__
00000000 l       *ABS*	00000000 __tmp_reg__
00000001 l       *ABS*	00000000 __zero_reg__
000070e4 l       .text	00000000 .Loc.0
000070e4 l       .text	00000000 L0
000070e4 l       .text	00000000 .Loc.1
000070f4 l       .text	00000000 __BOOTLOADERENTRY_FROMSOFTWARE__bootup_investigate_RAMEND_done6
000070f2 l       .text	00000000 __BOOTLOADERENTRY_FROMSOFTWARE__bootup_investigate_RAMEND_mismatch6
0080013c l     O .noinit	00000001 __BOOTLOADERENTRY_FROMSOFTWARE__bootup_RAMEND_doesmatch
0080013b l     O .noinit	00000001 __BOOTLOADERENTRY_FROMSOFTWARE__bootup_MCUCSR
000070fc l       .text	00000000 .Loc.2
000070fc l       .text	00000000 L0
00007382 l       .text	00000000 .Loc.3
00007382 l       .text	00000000 L0
00007382 l       .text	00000000 .Loc.4
00007384 l       .text	00000000 .Loc.5
00007384 l       .text	00000000 .Loc.6
00007384 l       .text	00000000 .Loc.7
00007384 l       .text	00000000 .Loc.8
00007386 l       .text	00000000 .Loc.9
00007386 l       .text	00000000 .Loc.10
00007388 l       .text	00000000 .Loc.11
0000738c l       .text	00000000 .Loc.12
00007392 l       .text	00000000 .Loc.13
00007392 l       .text	00000000 .Loc.14
00007394 l       .text	00000000 .Loc.15
00007398 l       .text	00000000 .Loc.16
00007398 l       .text	00000000 .Loc.17
00007398 l       .text	00000000 .Loc.18
0000739a l       .text	00000000 .Loc.19
0000739c l       .text	00000000 .Loc.20
0000739e l       .text	00000000 .Loc.21
00800102 l     O .data	00000004 signatureBytes
000073a4 l       .text	00000000 .Loc.22
000073a6 l       .text	00000000 .Loc.23
000073a6 l       .text	00000000 .Loc.24
000073aa l       .text	00000000 .Loc.25
000073b0 l       .text	00000000 .Loc.26
000073b0 l       .text	00000000 .Loc.27
000073b4 l       .text	00000000 .Loc.28
000073b4 l       .text	00000000 .Loc.29
000073ba l       .text	00000000 .Loc.30
000073be l       .text	00000000 .Loc.31
000073c2 l       .text	00000000 .Loc.32
000073c2 l       .text	00000000 .Loc.33
000073c6 l       .text	00000000 .Loc.34
000073ca l       .text	00000000 .Loc.35
000073ca l       .text	00000000 .Loc.36
000073ca l       .text	00000000 .Loc.37
000073d0 l       .text	00000000 .Loc.38
000073d6 l       .text	00000000 .Loc.39
000073d6 l       .text	00000000 .Loc.40
000073d6 l       .text	00000000 .Loc.41
000073d8 l       .text	00000000 .Loc.42
000073d8 l       .text	00000000 .Loc.43
000073dc l       .text	00000000 .Loc.44
000073dc l       .text	00000000 .Loc.45
000073dc l       .text	00000000 .Loc.46
000073e2 l       .text	00000000 .Loc.47
000073e4 l       .text	00000000 .Loc.48
000073e4 l       .text	00000000 .Loc.49
000073e4 l       .text	00000000 .Loc.50
000073e4 l       .text	00000000 .Loc.51
000073e8 l       .text	00000000 .Loc.52
000073e8 l       .text	00000000 .Loc.53
000073e8 l       .text	00000000 .Loc.54
000073e8 l       .text	00000000 .Loc.55
000073ec l       .text	00000000 .Loc.56
000073ee l       .text	00000000 .Loc.57
000073ee l       .text	00000000 .Loc.58
000073f0 l       .text	00000000 .Loc.59
000073f0 l       .text	00000000 .Loc.60
000073f0 l       .text	00000000 .Loc.61
000073f0 l       .text	00000000 .Loc.62
000073f0 l       .text	00000000 .Loc.63
000073f2 l       .text	00000000 .Loc.64
000073f2 l       .text	00000000 .Loc.65
000073f6 l       .text	00000000 .Loc.66
000073f6 l       .text	00000000 .Loc.67
000073f6 l       .text	00000000 .Loc.68
000073f6 l       .text	00000000 .Loc.69
000073fa l       .text	00000000 .Loc.70
000073fc l       .text	00000000 .Loc.71
000073fe l       .text	00000000 .Loc.72
00007400 l       .text	00000000 .Loc.73
00007400 l       .text	00000000 .Loc.74
00007400 l       .text	00000000 .Loc.75
00007404 l       .text	00000000 .Loc.76
00007404 l       .text	00000000 .Loc.77
00007406 l       .text	00000000 .Loc.78
00007406 l       .text	00000000 .Loc.79
0000740a l       .text	00000000 .Loc.80
0000740e l       .text	00000000 .Loc.81
00007410 l       .text	00000000 .Loc.82
00007410 l       .text	00000000 .Loc.83
00007414 l       .text	00000000 .Loc.84
00007414 l       .text	00000000 .Loc.85
00800139 l     O .bss	00000001 stayinloader
0000741c l       .text	00000000 L0
0000741c l       .text	00000000 .Loc.86
0000741c l       .text	00000000 L0
0000741c l       .text	00000000 .Loc.87
0000741c l       .text	00000000 .Loc.88
0000741c l       .text	00000000 .Loc.89
0000741c l       .text	00000000 .Loc.90
0000741e l       .text	00000000 .Loc.91
0000741e l       .text	00000000 .Loc.92
00007422 l       .text	00000000 .Loc.93
00007422 l       .text	00000000 .Loc.94
00007422 l       .text	00000000 .Loc.95
00007422 l       .text	00000000 .Loc.96
00007426 l       .text	00000000 .Loc.97
00007426 l       .text	00000000 .Loc.98
0000742a l       .text	00000000 .Loc.99
0000742a l       .text	00000000 .Loc.100
0000742a l       .text	00000000 .Loc.101
0000742e l       .text	00000000 _mywait_sleeploop252
00007436 l       .text	00000000 .Loc.102
00007436 l       .text	00000000 .Loc.103
00007436 l       .text	00000000 .Loc.104
00007436 l       .text	00000000 .Loc.105
00007436 l       .text	00000000 .Loc.106
0000743c l       .text	00000000 .Loc.107
00007440 l       .text	00000000 .Loc.108
00007440 l       .text	00000000 .Loc.109
00007444 l       .text	00000000 .Loc.110
00007448 l       .text	00000000 .Loc.111
00007448 l       .text	00000000 .Loc.112
0000744c l       .text	00000000 .Loc.113
0000744c l       .text	00000000 .Loc.114
0000744c l       .text	00000000 .Loc.115
0000744c l       .text	00000000 .Loc.116
0000744e l       .text	00000000 .Loc.117
00007450 l       .text	00000000 .Loc.118
00007450 l       .text	00000000 .Loc.119
00007450 l       .text	00000000 .Loc.120
00007450 l       .text	00000000 .Loc.121
00007452 l       .text	00000000 .Loc.122
00007452 l       .text	00000000 .Loc.123
00007454 l       .text	00000000 .Loc.124
00007454 l       .text	00000000 .Loc.125
00007458 l       .text	00000000 .Loc.126
00007458 l       .text	00000000 .Loc.127
0000745c l       .text	00000000 .Loc.128
0000745c l       .text	00000000 .Loc.129
0000745e l       .text	00000000 .Loc.130
00007464 l       .text	00000000 .Loc.131
00007464 l       .text	00000000 .Loc.132
0000746a l       .text	00000000 .Loc.133
0000746a l       .text	00000000 .Loc.134
0000746c l       .text	00000000 .Loc.135
0000746c l       .text	00000000 .Loc.136
0000746c l       .text	00000000 .Loc.137
0000746c l       .text	00000000 .Loc.138
0000746c l       .text	00000000 .Loc.139
00007482 l       .text	00000000 .Loc.140
00007482 l       .text	00000000 .Loc.141
00007482 l       .text	00000000 .Loc.142
00007482 l       .text	00000000 .Loc.143
00007482 l       .text	00000000 .Loc.144
00007486 l       .text	00000000 .Loc.145
0000748c l       .text	00000000 .Loc.146
0000748c l       .text	00000000 .Loc.147
0000748e l       .text	00000000 .Loc.148
0000748e l       .text	00000000 .Loc.149
00007490 l       .text	00000000 .Loc.150
00007490 l       .text	00000000 .Loc.151
00007490 l       .text	00000000 .Loc.152
00007496 l       .text	00000000 _mywait_sleeploop365
0000749e l       .text	00000000 .Loc.153
0000749e l       .text	00000000 .Loc.154
000074a0 l       .text	00000000 .Loc.155
000074a2 l       .text	00000000 .Loc.156
000074a2 l       .text	00000000 .Loc.157
000074a2 l       .text	00000000 .Loc.158
000074a2 l       .text	00000000 .Loc.159
000074a2 l       .text	00000000 .Loc.160
000074a2 l       .text	00000000 .Loc.161
000074a2 l       .text	00000000 .Loc.162
000074a8 l       .text	00000000 .Loc.163
000074a8 l       .text	00000000 .Loc.164
000074ac l       .text	00000000 .Loc.165
000074ac l       .text	00000000 .Loc.166
000074b8 l       .text	00000000 .Loc.167
000074bc l       .text	00000000 .Loc.168
000074bc l       .text	00000000 .Loc.169
000074bc l       .text	00000000 .Loc.170
000074bc l       .text	00000000 .Loc.171
000074bc l       .text	00000000 .Loc.172
000074c4 l       .text	00000000 L0
000074c6 l       .text	00000000 .Loc.173
000074c6 l       .text	00000000 .Loc.174
000074ca l       .text	00000000 L0
000074cc l       .text	00000000 .Loc.175
000074cc l       .text	00000000 .Loc.176
000074cc l       .text	00000000 .Loc.177
000074d2 l       .text	00000000 .Loc.178
000074d2 l       .text	00000000 .Loc.179
000074d8 l       .text	00000000 .Loc.180
000074d8 l       .text	00000000 .Loc.181
0080013a l     O .bss	00000001 usbMsgFlags
000074dc l       .text	00000000 .Loc.182
000074dc l       .text	00000000 .Loc.183
000074de l       .text	00000000 .Loc.184
000074e2 l       .text	00000000 .Loc.185
000074e2 l       .text	00000000 .Loc.186
000074e4 l       .text	00000000 .Loc.187
000074e8 l       .text	00000000 L0
000074ea l       .text	00000000 .Loc.188
000074ea l       .text	00000000 .Loc.189
000074ea l       .text	00000000 .Loc.190
000074ea l       .text	00000000 .Loc.191
000074ea l       .text	00000000 .Loc.192
000074ea l       .text	00000000 .Loc.193
000074ea l       .text	00000000 .Loc.194
00800130 l     O .bss	00000004 replyBuffer.0
000074f6 l       .text	00000000 .Loc.195
000074f6 l       .text	00000000 .Loc.196
000074fa l       .text	00000000 .Loc.197
000074fa l       .text	00000000 .Loc.198
000074fc l       .text	00000000 .Loc.199
000074fe l       .text	00000000 .Loc.200
00007502 l       .text	00000000 .Loc.201
00007502 l       .text	00000000 .Loc.202
00007502 l       .text	00000000 .Loc.203
00007502 l       .text	00000000 .Loc.204
00007504 l       .text	00000000 .Loc.205
00007504 l       .text	00000000 .Loc.206
00007504 l       .text	00000000 .Loc.207
00007504 l       .text	00000000 .Loc.208
0000750a l       .text	00000000 .Loc.209
00007514 l       .text	00000000 .Loc.210
00007514 l       .text	00000000 .Loc.211
00007518 l       .text	00000000 L0
0000751a l       .text	00000000 .Loc.212
0000751e l       .text	00000000 L0
00007520 l       .text	00000000 .Loc.213
00007520 l       .text	00000000 .Loc.214
00007522 l       .text	00000000 .Loc.215
00007524 l       .text	00000000 .Loc.216
00007528 l       .text	00000000 L0
0000752a l       .text	00000000 .Loc.217
0000752a l       .text	00000000 .Loc.218
00800137 l     O .bss	00000002 currentAddress
00007536 l       .text	00000000 .Loc.219
00007536 l       .text	00000000 .Loc.220
0000753a l       .text	00000000 L0
0000753c l       .text	00000000 .Loc.221
0000753c l       .text	00000000 .Loc.222
0000753e l       .text	00000000 .Loc.223
00800136 l     O .bss	00000001 bytesRemaining
00007542 l       .text	00000000 .Loc.224
00007542 l       .text	00000000 .Loc.225
00007546 l       .text	00000000 .Loc.226
00800135 l     O .bss	00000001 isLastPage
0000754a l       .text	00000000 .Loc.227
0000754a l       .text	00000000 .Loc.228
00800134 l     O .bss	00000001 currentRequest
0000754e l       .text	00000000 .Loc.229
0000754e l       .text	00000000 .Loc.230
0000754e l       .text	00000000 .Loc.231
0000754e l       .text	00000000 .Loc.232
0000754e l       .text	00000000 .Loc.233
00007552 l       .text	00000000 .Loc.234
00007552 l       .text	00000000 .Loc.235
00007558 l       .text	00000000 .Loc.236
00007558 l       .text	00000000 .Loc.237
00800100 l     O .data	00000001 usbMsgLen
0000755c l       .text	00000000 .Loc.238
0000755c l       .text	00000000 .Loc.239
0000755c l       .text	00000000 .Loc.240
00007560 l       .text	00000000 .Loc.241
00007560 l       .text	00000000 .Loc.242
00007564 l       .text	00000000 .Loc.243
00007568 l       .text	00000000 .Loc.244
00007568 l       .text	00000000 .Loc.245
0000756c l       .text	00000000 .Loc.246
00007570 l       .text	00000000 .Loc.247
00007570 l       .text	00000000 .Loc.248
00007570 l       .text	00000000 .Loc.249
00007570 l       .text	00000000 .Loc.250
00007570 l       .text	00000000 .Loc.251
00007570 l       .text	00000000 .Loc.252
00007570 l       .text	00000000 .Loc.253
00007578 l       .text	00000000 .Loc.254
00007578 l       .text	00000000 .Loc.255
00007580 l       .text	00000000 .Loc.256
00007580 l       .text	00000000 .Loc.257
0000758c l       .text	00000000 .Loc.258
0000758c l       .text	00000000 .Loc.259
0000758c l       .text	00000000 .Loc.260
0000758c l       .text	00000000 .Loc.261
00007590 l       .text	00000000 .Loc.262
00007590 l       .text	00000000 .Loc.263
00007594 l       .text	00000000 .Loc.264
00007598 l       .text	00000000 .Loc.265
00007598 l       .text	00000000 .Loc.266
00007598 l       .text	00000000 .Loc.267
00007598 l       .text	00000000 .Loc.268
00007598 l       .text	00000000 .Loc.269
0000759c l       .text	00000000 .Loc.270
000075a4 l       .text	00000000 .Loc.271
000075a4 l       .text	00000000 .Loc.272
000075aa l       .text	00000000 .Loc.273
000075aa l       .text	00000000 .Loc.274
000075ae l       .text	00000000 .Loc.275
000075b0 l       .text	00000000 .Loc.276
000075b8 l       .text	00000000 .Loc.277
000075bc l       .text	00000000 .Loc.278
000075bc l       .text	00000000 .Loc.279
000075c4 l       .text	00000000 .Loc.280
000075c4 l       .text	00000000 .Loc.281
000075c8 l       .text	00000000 .Loc.282
000075c8 l       .text	00000000 .Loc.283
000075cc l       .text	00000000 .Loc.284
000075cc l       .text	00000000 .Loc.285
000075d2 l       .text	00000000 .Loc.286
000075d2 l       .text	00000000 .Loc.287
000075d6 l       .text	00000000 .Loc.288
000075d6 l       .text	00000000 .Loc.289
000075d6 l       .text	00000000 .Loc.290
000075d6 l       .text	00000000 .Loc.291
000075d6 l       .text	00000000 .Loc.292
000075d8 l       .text	00000000 .Loc.293
000075d8 l       .text	00000000 .Loc.294
000075d8 l       .text	00000000 .Loc.295
000075da l       .text	00000000 .Loc.296
000075da l       .text	00000000 .Loc.297
000075dc l       .text	00000000 .Loc.298
000075e0 l       .text	00000000 .Loc.299
000075e0 l       .text	00000000 .Loc.300
000075e2 l       .text	00000000 .Loc.301
000075e4 l       .text	00000000 .Loc.302
000075e4 l       .text	00000000 .Loc.303
000075e8 l       .text	00000000 .Loc.304
000075e8 l       .text	00000000 .Loc.305
000075ec l       .text	00000000 .Loc.306
000075ec l       .text	00000000 .Loc.307
000075ec l       .text	00000000 .Loc.308
000075ec l       .text	00000000 .Loc.309
000075ec l       .text	00000000 .Loc.310
000075ec l       .text	00000000 .Loc.311
000075ec l       .text	00000000 .Loc.312
000075ec l       .text	00000000 .Loc.313
000075ec l       .text	00000000 .Loc.314
000075f0 l       .text	00000000 .Loc.315
000075f4 l       .text	00000000 L0
000075f6 l       .text	00000000 .Loc.316
000075f6 l       .text	00000000 .Loc.317
000075fa l       .text	00000000 .Loc.318
000075fa l       .text	00000000 .Loc.319
00007600 l       .text	00000000 .Loc.320
00007604 l       .text	00000000 .Loc.321
0000760e l       .text	00000000 .Loc.322
0000760e l       .text	00000000 .Loc.323
00007612 l       .text	00000000 .Loc.324
00007616 l       .text	00000000 .Loc.325
00007616 l       .text	00000000 .Loc.326
00007618 l       .text	00000000 .Loc.327
0000761c l       .text	00000000 .Loc.328
0000761c l       .text	00000000 .Loc.329
0000761c l       .text	00000000 .Loc.330
00007620 l       .text	00000000 .Loc.331
00007620 l       .text	00000000 .Loc.332
00007624 l       .text	00000000 .Loc.333
00007624 l       .text	00000000 .Loc.334
00007624 l       .text	00000000 .Loc.335
00007624 l       .text	00000000 .Loc.336
00007624 l       .text	00000000 .Loc.337
00007624 l       .text	00000000 .Loc.338
00007624 l       .text	00000000 .Loc.339
00007626 l       .text	00000000 .Loc.340
00007626 l       .text	00000000 .Loc.341
0000762a l       .text	00000000 .Loc.342
0000762a l       .text	00000000 .Loc.343
0000762a l       .text	00000000 .Loc.344
0000762e l       .text	00000000 .Loc.345
0000762e l       .text	00000000 .Loc.346
0000762e l       .text	00000000 .Loc.347
0000762e l       .text	00000000 .Loc.348
00007632 l       .text	00000000 .Loc.349
00007632 l       .text	00000000 .Loc.350
00007632 l       .text	00000000 .Loc.351
00007636 l       .text	00000000 .Loc.352
00007638 l       .text	00000000 .Loc.353
00007638 l       .text	00000000 .Loc.354
00007638 l       .text	00000000 .Loc.355
00007638 l       .text	00000000 .Loc.356
00007640 l       .text	00000000 .Loc.357
00007640 l       .text	00000000 .Loc.358
00007642 l       .text	00000000 .Loc.359
00007646 l       .text	00000000 .Loc.360
00007646 l       .text	00000000 .Loc.361
0000764a l       .text	00000000 .Loc.362
0000764a l       .text	00000000 .Loc.363
0000764a l       .text	00000000 .Loc.364
0000764e l       .text	00000000 .Loc.365
00007650 l       .text	00000000 .Loc.366
00007654 l       .text	00000000 .Loc.367
00007656 l       .text	00000000 .Loc.368
00007656 l       .text	00000000 .Loc.369
00007656 l       .text	00000000 .Loc.370
00007656 l       .text	00000000 .Loc.371
00007656 l       .text	00000000 .Loc.372
00007656 l       .text	00000000 .Loc.373
0000765a l       .text	00000000 .Loc.374
0000765a l       .text	00000000 .Loc.375
0000765a l       .text	00000000 .Loc.376
0000765a l       .text	00000000 .Loc.377
0000765a l       .text	00000000 .Loc.378
0000765e l       .text	00000000 .Loc.379
00007666 l       .text	00000000 .Loc.380
00007668 l       .text	00000000 .Loc.381
00007668 l       .text	00000000 .Loc.382
00007668 l       .text	00000000 .Loc.383
0000766a l       .text	00000000 .Loc.384
0000766e l       .text	00000000 .Loc.385
0000766e l       .text	00000000 .Loc.386
0000766e l       .text	00000000 .Loc.387
0000766e l       .text	00000000 .Loc.388
0000766e l       .text	00000000 .Loc.389
00007670 l       .text	00000000 .Loc.390
00007674 l       .text	00000000 .Loc.391
00007674 l       .text	00000000 .Loc.392
00007674 l       .text	00000000 .Loc.393
00007674 l       .text	00000000 .Loc.394
00007674 l       .text	00000000 .Loc.395
00007678 l       .text	00000000 .Loc.396
0000767a l       .text	00000000 .Loc.397
0000767e l       .text	00000000 .Loc.398
0000767e l       .text	00000000 .Loc.399
0000767e l       .text	00000000 .Loc.400
00007682 l       .text	00000000 .Loc.401
00007682 l       .text	00000000 .Loc.402
00007682 l       .text	00000000 .Loc.403
00007682 l       .text	00000000 .Loc.404
00007682 l       .text	00000000 .Loc.405
00007686 l       .text	00000000 .Loc.406
00007692 l       .text	00000000 .Loc.407
00007696 l       .text	00000000 .Loc.408
00007696 l       .text	00000000 .Loc.409
00007696 l       .text	00000000 .Loc.410
00007696 l       .text	00000000 .Loc.411
00007696 l       .text	00000000 .Loc.412
0000769a l       .text	00000000 .Loc.413
000076a6 l       .text	00000000 .Loc.414
000076aa l       .text	00000000 .Loc.415
000076aa l       .text	00000000 .Loc.416
000076aa l       .text	00000000 .Loc.417
000076aa l       .text	00000000 .Loc.418
000076aa l       .text	00000000 .Loc.419
000076ae l       .text	00000000 .Loc.420
000076ba l       .text	00000000 .Loc.421
000076ba l       .text	00000000 .Loc.422
000076be l       .text	00000000 .Loc.423
000076c2 l       .text	00000000 .Loc.424
000076c2 l       .text	00000000 .Loc.425
000076c6 l       .text	00000000 .Loc.426
000076c6 l       .text	00000000 .Loc.427
000076c6 l       .text	00000000 .Loc.428
000076c8 l       .text	00000000 .Loc.429
000076c8 l       .text	00000000 .Loc.430
000076ca l       .text	00000000 .Loc.431
000076ce l       .text	00000000 L0
000076d4 l       .text	00000000 .Loc.432
000076d8 l       .text	00000000 .Loc.433
000076da l       .text	00000000 .Loc.434
000076dc l       .text	00000000 .Loc.435
000076dc l       .text	00000000 .Loc.436
000076de l       .text	00000000 .Loc.437
000076e0 l       .text	00000000 .Loc.438
000076e0 l       .text	00000000 .Loc.439
000076e0 l       .text	00000000 .Loc.440
000076e8 l       .text	00000000 .Loc.441
000076e8 l       .text	00000000 .Loc.442
000076e8 l       .text	00000000 .Loc.443
000076e8 l       .text	00000000 .Loc.444
000076e8 l       .text	00000000 .Loc.445
000076e8 l       .text	00000000 .Loc.446
000076ec l       .text	00000000 .Loc.447
000076f2 l       .text	00000000 .Loc.448
000076f2 l       .text	00000000 .Loc.449
000076f8 l       .text	00000000 .Loc.450
000076f8 l       .text	00000000 .Loc.451
000076f8 l       .text	00000000 .Loc.452
000076fa l       .text	00000000 .Loc.453
000076fa l       .text	00000000 .Loc.454
000076fe l       .text	00000000 .Loc.455
000076fe l       .text	00000000 .Loc.456
000076fe l       .text	00000000 .Loc.457
000076fe l       .text	00000000 .Loc.458
00007702 l       .text	00000000 .Loc.459
00007702 l       .text	00000000 .Loc.460
00007708 l       .text	00000000 .Loc.461
00007708 l       .text	00000000 .Loc.462
00007710 l       .text	00000000 .Loc.463
00007718 l       .text	00000000 .Loc.464
00007718 l       .text	00000000 .Loc.465
0000771a l       .text	00000000 .Loc.466
00007728 l       .text	00000000 .Loc.467
0000772a l       .text	00000000 .Loc.468
0000772a l       .text	00000000 .Loc.469
0000772c l       .text	00000000 .Loc.470
0000772e l       .text	00000000 .Loc.471
0000772e l       .text	00000000 .Loc.472
00007734 l       .text	00000000 .Loc.473
00007734 l       .text	00000000 .Loc.474
00007738 l       .text	00000000 .Loc.475
00007738 l       .text	00000000 .Loc.476
0000773a l       .text	00000000 .Loc.477
00007752 l       .text	00000000 .Loc.478
00007754 l       .text	00000000 .Loc.479
00007754 l       .text	00000000 .Loc.480
00007766 l       .text	00000000 .Loc.481
00007766 l       .text	00000000 .Loc.482
00007766 l       .text	00000000 .Loc.483
0000776a l       .text	00000000 .Loc.484
0000776e l       .text	00000000 .Loc.485
00007772 l       .text	00000000 .Loc.486
00007776 l       .text	00000000 .Loc.487
00007778 l       .text	00000000 .Loc.488
0000777a l       .text	00000000 .Loc.489
00007782 l       .text	00000000 .Loc.490
00007782 l       .text	00000000 .Loc.491
00007784 l       .text	00000000 .Loc.492
00007796 l       .text	00000000 .Loc.493
00007798 l       .text	00000000 .Loc.494
00007798 l       .text	00000000 .Loc.495
00007798 l       .text	00000000 .Loc.496
0000779e l       .text	00000000 .Loc.497
0000779e l       .text	00000000 .Loc.498
000077a0 l       .text	00000000 .Loc.499
000077b2 l       .text	00000000 .Loc.500
000077b4 l       .text	00000000 .Loc.501
000077b4 l       .text	00000000 .Loc.502
000077b4 l       .text	00000000 .Loc.503
000077ba l       .text	00000000 .Loc.504
000077bc l       .text	00000000 .Loc.505
000077c4 l       .text	00000000 .Loc.506
000077c8 l       .text	00000000 .Loc.507
000077c8 l       .text	00000000 .Loc.508
000077c8 l       .text	00000000 .Loc.509
000077d0 l       .text	00000000 .Loc.510
000077d6 l       .text	00000000 .Loc.511
000077d6 l       .text	00000000 .Loc.512
000077da l       .text	00000000 .Loc.513
000077e0 l       .text	00000000 .Loc.514
000077e0 l       .text	00000000 .Loc.515
000077e0 l       .text	00000000 .Loc.516
000077ec l       .text	00000000 .Loc.517
000077ee l       .text	00000000 .Loc.518
000077f0 l       .text	00000000 .Loc.519
000077f0 l       .text	00000000 .Loc.520
000077f0 l       .text	00000000 .Loc.521
000077f0 l       .text	00000000 .Loc.522
000077f4 l       .text	00000000 .Loc.523
000077f6 l       .text	00000000 .Loc.524
000077f6 l       .text	00000000 .Loc.525
000077f6 l       .text	00000000 .Loc.526
000077f6 l       .text	00000000 .Loc.527
000077fe l       .text	00000000 .Loc.528
00007802 l       .text	00000000 .Loc.529
00007806 l       .text	00000000 .Loc.530
0000780e l       .text	00000000 .Loc.531
0000780e l       .text	00000000 .Loc.532
0000780e l       .text	00000000 .Loc.533
0000780e l       .text	00000000 .Loc.534
0000780e l       .text	00000000 .Loc.535
00007810 l       .text	00000000 .Loc.536
00007810 l       .text	00000000 .Loc.537
00007810 l       .text	00000000 .Loc.538
00007812 l       .text	00000000 .Loc.539
00007818 l       .text	00000000 .Loc.540
00007818 l       .text	00000000 .Loc.541
0000781a l       .text	00000000 .Loc.542
0000781a l       .text	00000000 .Loc.543
0000781a l       .text	00000000 .Loc.544
0000781e l       .text	00000000 .Loc.545
0000781e l       .text	00000000 .Loc.546
00007826 l       .text	00000000 .Loc.547
00007826 l       .text	00000000 .Loc.548
00007826 l       .text	00000000 .Loc.549
00007826 l       .text	00000000 .Loc.550
00007826 l       .text	00000000 .Loc.551
0000782a l       .text	00000000 .Loc.552
0000782e l       .text	00000000 .Loc.553
0000782e l       .text	00000000 .Loc.554
00007830 l       .text	00000000 .Loc.555
00007832 l       .text	00000000 .Loc.556
00007838 l       .text	00000000 .Loc.557
00007838 l       .text	00000000 .Loc.558
00007838 l       .text	00000000 .Loc.559
0000783e l       .text	00000000 .Loc.560
0000783e l       .text	00000000 .Loc.561
0000783e l       .text	00000000 .Loc.562
00007842 l       .text	00000000 .Loc.563
00007842 l       .text	00000000 .Loc.564
00007846 l       .text	00000000 .Loc.565
0000784a l       .text	00000000 L0
0000784c l       .text	00000000 .Loc.566
0000784c l       .text	00000000 .Loc.567
00007854 l       .text	00000000 L0
000070fc l       .text	00000000 L0
0000741c l       .text	00000000 L0
00007854 l       .text	00000000 L0
00000000 l       .debug_frame	00000000 L0
000073a6 l       .text	00000000 .L3
000073c2 l       .text	00000000 .L5
000073d0 l       .text	00000000 .L15
000073e4 l       .text	00000000 .L7
000073d8 l       .text	00000000 .L8
000073be l       .text	00000000 .L9
000073f2 l       .text	00000000 .L11
00007400 l       .text	00000000 .L12
000073ee l       .text	00000000 .L16
00007406 l       .text	00000000 .L13
00007410 l       .text	00000000 .L14
00007448 l       .text	00000000 .L18
00007464 l       .text	00000000 .L19
00007560 l       .text	00000000 .L20
000076e0 l       .text	00000000 .L21
0000755c l       .text	00000000 .L23
00007624 l       .text	00000000 .L24
00007514 l       .text	00000000 .L25
00007558 l       .text	00000000 .L44
000076dc l       .text	00000000 .L78
0000760e l       .text	00000000 .L27
0000761c l       .text	00000000 .L28
000075d6 l       .text	00000000 .L58
00007578 l       .text	00000000 .L59
000075bc l       .text	00000000 .L60
000077f6 l       .text	00000000 .L61
000075a4 l       .text	00000000 .L62
000077c8 l       .text	00000000 .L66
000075d2 l       .text	00000000 .L70
000075ec l       .text	00000000 .L71
000075d8 l       .text	00000000 .L72
0000783e l       .text	00000000 .L73
00007604 l       .text	00000000 .L74
000074a2 l       .text	00000000 .L75
0000744c l       .text	00000000 .L76
00007620 l       .text	00000000 .L30
00007504 l       .text	00000000 .L26
00007618 l       .text	00000000 .L114
00007642 l       .text	00000000 .L31
00007650 l       .text	00000000 .L33
00007638 l       .text	00000000 .L32
000076ba l       .text	00000000 .L35
00007670 l       .text	00000000 .L36
0000767a l       .text	00000000 .L38
0000765e l       .text	00000000 .L37
00007668 l       .text	00000000 .L39
00007692 l       .text	00000000 .L40
000076a6 l       .text	00000000 .L41
000076d4 l       .text	00000000 .L79
000076c8 l       .text	00000000 .L42
0000764a l       .text	00000000 .L43
000076f2 l       .text	00000000 .L47
00007708 l       .text	00000000 .L57
0000772e l       .text	00000000 .L49
000076fa l       .text	00000000 .L48
00007702 l       .text	00000000 .L51
00007782 l       .text	00000000 .L52
00007776 l       .text	00000000 .L53
0000777a l       .text	00000000 .L54
00007798 l       .text	00000000 .L55
000077b4 l       .text	00000000 .L56
000077f0 l       .text	00000000 .L64
000075b8 l       .text	00000000 .L63
000077da l       .text	00000000 .L65
0000782a l       .text	00000000 .L80
0000780e l       .text	00000000 .L68
0000782e l       .text	00000000 .L67
0000781e l       .text	00000000 .L69
00007600 l       .text	00000000 .L115
000005b6 l       .debug_abbrev	00000000 .Ldebug_abbrev0
00000105 l       .debug_rnglists	00000000 .LLRL66
000006f9 l       .debug_line	00000000 .Ldebug_line0
00000000 l       .debug_macro	00000000 .Ldebug_macro0
0000741c l       .text	00000000 .LFB35
00007854 l       .text	00000000 .LFE35
0000741c l       .text	00000000 .LBI82
0000741c l       .text	00000000 .LBB82
00007422 l       .text	00000000 .LBE82
0000742a l       .text	00000000 .LBI84
0000742a l       .text	00000000 .LBB84
00007436 l       .text	00000000 .LBE84
0000000e l       .debug_loclists	00000000 .LLST7
0000000c l       .debug_loclists	00000000 .LVUS7
0000001c l       .debug_loclists	00000000 .LLST8
0000001a l       .debug_loclists	00000000 .LVUS8
00007436 l       .text	00000000 .LBI86
00007436 l       .text	00000000 .LBB86
00007448 l       .text	00000000 .LBE86
0000744c l       .text	00000000 .LBI88
0000744c l       .text	00000000 .LBB88
00007464 l       .text	00000000 .LBE88
00007450 l       .text	00000000 .LBI90
00007450 l       .text	00000000 .LBB90
00007452 l       .text	00000000 .LBE90
00007464 l       .text	00000000 .LVL30
0000746c l       .text	00000000 .LBI92
0000746c l       .text	00000000 .LBB92
00007482 l       .text	00000000 .LBE92
0000746c l       .text	00000000 .LBB93
00007482 l       .text	00000000 .LBE93
00007482 l       .text	00000000 .LBI94
00007482 l       .text	00000000 .LBB94
000074a2 l       .text	00000000 .LBE94
00007482 l       .text	00000000 .LBI96
00007482 l       .text	00000000 .LBB96
0000748e l       .text	00000000 .LBE96
00007490 l       .text	00000000 .LBI98
00007490 l       .text	00000000 .LBB98
0000749e l       .text	00000000 .LBE98
00000028 l       .debug_loclists	00000000 .LLST9
00000026 l       .debug_loclists	00000000 .LVUS9
00000036 l       .debug_loclists	00000000 .LLST10
00000034 l       .debug_loclists	00000000 .LVUS10
000074a2 l       .text	00000000 .LBI100
00000018 l       .debug_rnglists	00000000 .LLRL11
00000044 l       .debug_loclists	00000000 .LLST12
00000040 l       .debug_loclists	00000000 .LVUS12
0000005f l       .debug_loclists	00000000 .LLST13
00000057 l       .debug_loclists	00000000 .LVUS13
000074bc l       .text	00000000 .LBI102
00000027 l       .debug_rnglists	00000000 .LLRL14
00000080 l       .debug_loclists	00000000 .LLST15
0000007c l       .debug_loclists	00000000 .LVUS15
00000097 l       .debug_loclists	00000000 .LLST16
00000093 l       .debug_loclists	00000000 .LVUS16
000000b8 l       .debug_loclists	00000000 .LLST17
000000b4 l       .debug_loclists	00000000 .LVUS17
00000036 l       .debug_rnglists	00000000 .LLRL18
000000e1 l       .debug_loclists	00000000 .LLST19
000000d5 l       .debug_loclists	00000000 .LVUS19
00000141 l       .debug_loclists	00000000 .LLST20
0000010f l       .debug_loclists	00000000 .LVUS20
000074ea l       .text	00000000 .LBI105
00000045 l       .debug_rnglists	00000000 .LLRL21
00000239 l       .debug_loclists	00000000 .LLST22
0000022f l       .debug_loclists	00000000 .LVUS22
0000027f l       .debug_loclists	00000000 .LLST23
00000277 l       .debug_loclists	00000000 .LVUS23
000002bb l       .debug_loclists	00000000 .LLST24
000002b1 l       .debug_loclists	00000000 .LVUS24
000074fe l       .text	00000000 .LVL38
00007624 l       .text	00000000 .LBI118
00000066 l       .debug_rnglists	00000000 .LLRL25
000002eb l       .debug_loclists	00000000 .LLST26
000002e5 l       .debug_loclists	00000000 .LVUS26
0000031c l       .debug_loclists	00000000 .LLST27
00000310 l       .debug_loclists	00000000 .LVUS27
00000349 l       .debug_loclists	00000000 .LLST28
00000345 l       .debug_loclists	00000000 .LVUS28
00000371 l       .debug_loclists	00000000 .LLST29
00000363 l       .debug_loclists	00000000 .LVUS29
00000076 l       .debug_rnglists	00000000 .LLRL30
000003a6 l       .debug_loclists	00000000 .LLST31
000003a0 l       .debug_loclists	00000000 .LVUS31
0000008c l       .debug_rnglists	00000000 .LLRL32
000003c1 l       .debug_loclists	00000000 .LLST33
000003bf l       .debug_loclists	00000000 .LVUS33
00007656 l       .text	00000000 .LBI123
00000098 l       .debug_rnglists	00000000 .LLRL34
000003d4 l       .debug_loclists	00000000 .LLST35
000003d0 l       .debug_loclists	00000000 .LVUS35
00000404 l       .debug_loclists	00000000 .LLST36
000003ee l       .debug_loclists	00000000 .LVUS36
0000044d l       .debug_loclists	00000000 .LLST37
0000044b l       .debug_loclists	00000000 .LVUS37
000000a4 l       .debug_rnglists	00000000 .LLRL38
0000045e l       .debug_loclists	00000000 .LLST39
00000458 l       .debug_loclists	00000000 .LVUS39
0000767e l       .text	00000000 .LBB126
000076ba l       .text	00000000 .LBE126
00000476 l       .debug_loclists	00000000 .LLST40
00000474 l       .debug_loclists	00000000 .LVUS40
000076c6 l       .text	00000000 .LBI130
000076c6 l       .text	00000000 .LBB130
000076c8 l       .text	00000000 .LBE130
000076e8 l       .text	00000000 .LBB142
000077c8 l       .text	00000000 .LBE142
00000483 l       .debug_loclists	00000000 .LLST41
0000047f l       .debug_loclists	00000000 .LVUS41
000076e8 l       .text	00000000 .LBI143
000000b0 l       .debug_rnglists	00000000 .LLRL42
0000049e l       .debug_loclists	00000000 .LLST43
0000049a l       .debug_loclists	00000000 .LVUS43
000004bd l       .debug_loclists	00000000 .LLST44
000004af l       .debug_loclists	00000000 .LVUS44
0000050d l       .debug_loclists	00000000 .LLST45
00000507 l       .debug_loclists	00000000 .LVUS45
00000528 l       .debug_loclists	00000000 .LLST46
00000524 l       .debug_loclists	00000000 .LVUS46
0000772a l       .text	00000000 .LVL116
00007570 l       .text	00000000 .LBI148
000000bd l       .debug_rnglists	00000000 .LLRL47
0000054b l       .debug_loclists	00000000 .LLST48
00000545 l       .debug_loclists	00000000 .LVUS48
00000566 l       .debug_loclists	00000000 .LLST49
00000562 l       .debug_loclists	00000000 .LVUS49
0000758c l       .text	00000000 .LBI150
000000ce l       .debug_rnglists	00000000 .LLRL50
00000580 l       .debug_loclists	00000000 .LLST51
00000578 l       .debug_loclists	00000000 .LVUS51
000005b4 l       .debug_loclists	00000000 .LLST52
000005ae l       .debug_loclists	00000000 .LVUS52
00007598 l       .text	00000000 .LBI152
000000e4 l       .debug_rnglists	00000000 .LLRL53
000005d5 l       .debug_loclists	00000000 .LLST54
000005cd l       .debug_loclists	00000000 .LVUS54
0000060c l       .debug_loclists	00000000 .LLST55
00000606 l       .debug_loclists	00000000 .LVUS55
00000629 l       .debug_loclists	00000000 .LLST56
00000623 l       .debug_loclists	00000000 .LVUS56
000077f0 l       .text	00000000 .LBB154
000077f6 l       .text	00000000 .LBE154
00000643 l       .debug_loclists	00000000 .LLST57
00000641 l       .debug_loclists	00000000 .LVUS57
00000652 l       .debug_loclists	00000000 .LLST58
00000650 l       .debug_loclists	00000000 .LVUS58
000077da l       .text	00000000 .LVL123
000000f2 l       .debug_rnglists	00000000 .LLRL59
0000065f l       .debug_loclists	00000000 .LLST60
0000065b l       .debug_loclists	00000000 .LVUS60
0000067b l       .debug_loclists	00000000 .LLST61
0000066f l       .debug_loclists	00000000 .LVUS61
0000780e l       .text	00000000 .LBB157
0000781a l       .text	00000000 .LBE157
000006bc l       .debug_loclists	00000000 .LLST62
000006ba l       .debug_loclists	00000000 .LVUS62
0000780e l       .text	00000000 .LBB158
00007810 l       .text	00000000 .LBE158
000006c9 l       .debug_loclists	00000000 .LLST63
000006c5 l       .debug_loclists	00000000 .LVUS63
000006e2 l       .debug_loclists	00000000 .LLST64
000006e0 l       .debug_loclists	00000000 .LVUS64
000075c4 l       .text	00000000 .LVL56
000075d8 l       .text	00000000 .LBB171
000075e0 l       .text	00000000 .LBE171
000006ef l       .debug_loclists	00000000 .LLST65
000006eb l       .debug_loclists	00000000 .LVUS65
000075ec l       .text	00000000 .LBI172
000075ec l       .text	00000000 .LBB172
000075ec l       .text	00000000 .LBE172
00007382 l       .text	00000000 .LFB29
0000741c l       .text	00000000 .LFE29
00000727 l       .debug_loclists	00000000 .LLST0
00000703 l       .debug_loclists	00000000 .LVUS0
0000081c l       .debug_loclists	00000000 .LLST1
0000080a l       .debug_loclists	00000000 .LVUS1
000073aa l       .text	00000000 .LBB18
000073b0 l       .text	00000000 .LBE18
000073ca l       .text	00000000 .LBB20
000073d6 l       .text	00000000 .LBE20
0000085a l       .debug_loclists	00000000 .LLST2
00000858 l       .debug_loclists	00000000 .LVUS2
000073b4 l       .text	00000000 .LBB19
000073ba l       .text	00000000 .LBE19
000073dc l       .text	00000000 .LBB21
000073e4 l       .text	00000000 .LBE21
000073e8 l       .text	00000000 .LBB22
000073ee l       .text	00000000 .LBE22
00000867 l       .debug_loclists	00000000 .LLST3
00000863 l       .debug_loclists	00000000 .LVUS3
0000000c l       .debug_rnglists	00000000 .LLRL4
00000884 l       .debug_loclists	00000000 .LLST5
00000880 l       .debug_loclists	00000000 .LVUS5
000008a1 l       .debug_loclists	00000000 .LLST6
0000089f l       .debug_loclists	00000000 .LVUS6
00007406 l       .text	00000000 .LVL25
0000740e l       .text	00000000 .LVL26
000070e4 l       .text	00000000 .LFB27
000070fc l       .text	00000000 .LFE27
0000742a l       .text	00000000 .LVL28
00007490 l       .text	00000000 .LVL31
000074a8 l       .text	00000000 .LVL33
000075d6 l       .text	00000000 .LVL58
000074bc l       .text	00000000 .LVL34
00007502 l       .text	00000000 .LVL39
000074e2 l       .text	00000000 .LVL35
000074ea l       .text	00000000 .LVL36
00007624 l       .text	00000000 .LVL68
00007636 l       .text	00000000 .LVL73
00007626 l       .text	00000000 .LVL69
0000762a l       .text	00000000 .LVL70
0000762e l       .text	00000000 .LVL71
00007656 l       .text	00000000 .LVL80
0000767e l       .text	00000000 .LVL90
000076fe l       .text	00000000 .LVL111
000076e8 l       .text	00000000 .LVL107
000076f8 l       .text	00000000 .LVL109
00007570 l       .text	00000000 .LVL48
000075c8 l       .text	00000000 .LVL57
0000780e l       .text	00000000 .LVL130
0000758c l       .text	00000000 .LVL50
000075b8 l       .text	00000000 .LVL54
00007598 l       .text	00000000 .LVL51
000075aa l       .text	00000000 .LVL53
000077f0 l       .text	00000000 .LVL126
000077f4 l       .text	00000000 .LVL127
000077f6 l       .text	00000000 .LVL128
000077fe l       .text	00000000 .LVL129
00007810 l       .text	00000000 .LVL131
000075da l       .text	00000000 .LVL60
00007382 l       .text	00000000 .LVL0
00007384 l       .text	00000000 .LVL1
000073d6 l       .text	00000000 .LVL11
000073e8 l       .text	00000000 .LVL15
000073f6 l       .text	00000000 .LVL20
000073f0 l       .text	00000000 .LVL18
00000619 l       .debug_info	00000000 .Ldebug_info0
00007382 l       .text	00000000 .Ltext0
0000741c l       .text	00000000 .Letext0
000073ee l       .text	00000000 .LBB23
000074a2 l       .text	00000000 .LBB100
000074bc l       .text	00000000 .LBB102
000074c6 l       .text	00000000 .LBB104
000074e2 l       .text	00000000 .LBB105
00007624 l       .text	00000000 .LBB118
0000762a l       .text	00000000 .LBB120
0000762e l       .text	00000000 .LBB121
00007656 l       .text	00000000 .LBB123
00007656 l       .text	00000000 .LBB125
000076e8 l       .text	00000000 .LBB143
00007570 l       .text	00000000 .LBB148
0000758c l       .text	00000000 .LBB150
00007598 l       .text	00000000 .LBB152
000075d6 l       .text	00000000 .LBB156
00000240 l       .debug_macro	00000000 .Ldebug_macro15
00000273 l       .debug_macro	00000000 .Ldebug_macro16
000002ea l       .debug_macro	00000000 .Ldebug_macro20
00000352 l       .debug_macro	00000000 .Ldebug_macro21
00000464 l       .debug_macro	00000000 .Ldebug_macro22
00000497 l       .debug_macro	00000000 .Ldebug_macro23
000005a3 l       .debug_macro	00000000 .Ldebug_macro24
00000703 l       .debug_macro	00000000 .Ldebug_macro25
00000713 l       .debug_macro	00000000 .Ldebug_macro26
0000077e l       .debug_macro	00000000 .Ldebug_macro27
00000794 l       .debug_macro	00000000 .Ldebug_macro28
000007d0 l       .debug_macro	00000000 .Ldebug_macro31
00000a58 l       .debug_macro	00000000 .Ldebug_macro32
00000a7a l       .debug_macro	00000000 .Ldebug_macro33
00000000 l    df *ABS*	00000000 crtatmega328p.o
00000000 l       .debug_abbrev	00000000 .Ldebug_abbrev0
00000000 l       .debug_str	00000000 .Lproducer
00000000 l       .debug_line	00000000 .Ldebug_line0
0000000f l       .debug_str	00000000 .Luint8_t_name
00000017 l       .debug_str	00000000 .Luint16_t_name
00000020 l       .debug_str	00000000 .Lname6
00000029 l       .debug_str	00000000 .Lname7
0000002e l       .debug_str	00000000 .Lname8
00000035 l       .debug_str	00000000 .Lname9
0000003c l       .debug_str	00000000 .Lname10
00000043 l       .debug_str	00000000 .Lname11
00000049 l       .debug_str	00000000 .Lname12
0000004f l       .debug_str	00000000 .Lname13
00000054 l       .debug_str	00000000 .Lname14
00000059 l       .debug_str	00000000 .Lname15
0000005e l       .debug_str	00000000 .Lname16
00000063 l       .debug_str	00000000 .Lname17
00000068 l       .debug_str	00000000 .Lname18
0000006f l       .debug_str	00000000 .Lname19
00000075 l       .debug_str	00000000 .Lname20
0000007c l       .debug_str	00000000 .Lname21
00000083 l       .debug_str	00000000 .Lname22
0000008a l       .debug_str	00000000 .Lname23
00000090 l       .debug_str	00000000 .Lname24
00000096 l       .debug_str	00000000 .Lname25
0000009c l       .debug_str	00000000 .Lname26
000000a1 l       .debug_str	00000000 .Lname27
000000a7 l       .debug_str	00000000 .Lname28
000000ae l       .debug_str	00000000 .Lname29
000000b4 l       .debug_str	00000000 .Lname30
000000bb l       .debug_str	00000000 .Lname31
000000c2 l       .debug_str	00000000 .Lname32
000000c8 l       .debug_str	00000000 .Lname33
000000ce l       .debug_str	00000000 .Lname34
000000d4 l       .debug_str	00000000 .Lname35
000000d9 l       .debug_str	00000000 .Lname36
000000df l       .debug_str	00000000 .Lname37
000000e5 l       .debug_str	00000000 .Lname38
000000e9 l       .debug_str	00000000 .Lname39
000000f0 l       .debug_str	00000000 .Lname40
000000f7 l       .debug_str	00000000 .Lname41
000000fd l       .debug_str	00000000 .Lname42
00000102 l       .debug_str	00000000 .Lname43
00000108 l       .debug_str	00000000 .Lname44
0000010e l       .debug_str	00000000 .Lname45
00000113 l       .debug_str	00000000 .Lname46
00000118 l       .debug_str	00000000 .Lname47
0000011e l       .debug_str	00000000 .Lname48
00000123 l       .debug_str	00000000 .Lname49
00000128 l       .debug_str	00000000 .Lname50
0000012e l       .debug_str	00000000 .Lname51
00000133 l       .debug_str	00000000 .Lname52
00000138 l       .debug_str	00000000 .Lname53
0000013e l       .debug_str	00000000 .Lname54
00000144 l       .debug_str	00000000 .Lname55
0000014a l       .debug_str	00000000 .Lname56
00000151 l       .debug_str	00000000 .Lname57
00000158 l       .debug_str	00000000 .Lname58
0000015f l       .debug_str	00000000 .Lname59
00000165 l       .debug_str	00000000 .Lname60
0000016b l       .debug_str	00000000 .Lname61
00000171 l       .debug_str	00000000 .Lname62
00000177 l       .debug_str	00000000 .Lname63
0000017c l       .debug_str	00000000 .Lname64
00000182 l       .debug_str	00000000 .Lname65
00000189 l       .debug_str	00000000 .Lname66
00000190 l       .debug_str	00000000 .Lname67
00000197 l       .debug_str	00000000 .Lname68
0000019d l       .debug_str	00000000 .Lname69
000001a2 l       .debug_str	00000000 .Lname70
000001a7 l       .debug_str	00000000 .Lname71
000001ac l       .debug_str	00000000 .Lname72
000001b3 l       .debug_str	00000000 .Lname73
000001b7 l       .debug_str	00000000 .Lname74
000001be l       .debug_str	00000000 .Lname75
000001c4 l       .debug_str	00000000 .Lname76
000001c9 l       .debug_str	00000000 .Lname77
000001cc l       .debug_str	00000000 .Lname78
000001d3 l       .debug_str	00000000 .Lname79
000001d9 l       .debug_str	00000000 .Lname80
000001df l       .debug_str	00000000 .Lname81
000001e4 l       .debug_str	00000000 .Lname82
000001eb l       .debug_str	00000000 .Lname83
000001f2 l       .debug_str	00000000 .Lname84
000001f9 l       .debug_str	00000000 .Lname85
000001fe l       .debug_str	00000000 .Lname86
00000203 l       .debug_str	00000000 .Lname87
00000000 l    df *ABS*	00000000 _copy_data.o
000070fc l       .text	00000000 .Loc.0
000070fe l       .text	00000000 .Loc.1
00007100 l       .text	00000000 .Loc.2
00007102 l       .text	00000000 .Loc.3
00007104 l       .text	00000000 .Loc.4
00007106 l       .text	00000000 .Loc.5
00007108 l       .text	00000000 .Loc.6
0000710a l       .text	00000000 .Loc.7
0000710c l       .text	00000000 .Loc.8
0000710e l       .text	00000000 .Loc.9
00007110 l       .text	00000000 .Loc.10
00007112 l       .text	00000000 L0
000070fc l       .text	00000000 L0
00007112 l       .text	00000000 L0
0000710c l       .text	00000000 .L__do_copy_data_start
00007108 l       .text	00000000 .L__do_copy_data_loop
00000000 l    df *ABS*	00000000 _clear_bss.o
00007112 l       .text	00000000 .Loc.0
00007114 l       .text	00000000 .Loc.1
00007116 l       .text	00000000 .Loc.2
00007118 l       .text	00000000 .Loc.3
0000711c l       .text	00000000 .do_clear_bss_start
0000711a l       .text	00000000 .do_clear_bss_loop
0000711a l       .text	00000000 .Loc.4
0000711c l       .text	00000000 .Loc.5
0000711e l       .text	00000000 .Loc.6
00007120 l       .text	00000000 .Loc.7
00007122 l       .text	00000000 L0
00007112 l       .text	00000000 L0
00007122 l       .text	00000000 L0
00000000 l    df *ABS*	00000000 usbdrvasm.o
00007128 l       .text	00000000 .Loc.0
0000712a l       .text	00000000 .Loc.1
0000712c l       .text	00000000 .Loc.2
0000712e l       .text	00000000 .Loc.3
00007130 l       .text	00000000 .Loc.4
00007132 l       .text	00000000 .Loc.5
00007134 l       .text	00000000 .Loc.6
00007136 l       .text	00000000 .Loc.7
00007138 l       .text	00000000 .Loc.8
0000714c l       .text	00000000 usbCrcLoopEntry
0000713a l       .text	00000000 usbCrcByteLoop
0000713a l       .text	00000000 .Loc.9
0000713c l       .text	00000000 .Loc.10
0000713e l       .text	00000000 usbCrcBitLoop
0000713e l       .text	00000000 .Loc.11
00007140 l       .text	00000000 .Loc.12
00007142 l       .text	00000000 .Loc.13
00007148 l       .text	00000000 usbCrcNoXor
00007144 l       .text	00000000 .Loc.14
00007146 l       .text	00000000 .Loc.15
00007148 l       .text	00000000 .Loc.16
0000714a l       .text	00000000 .Loc.17
0000714c l       .text	00000000 .Loc.18
0000714e l       .text	00000000 .Loc.19
00007150 l       .text	00000000 usbCrcReady
00007150 l       .text	00000000 .Loc.20
00007152 l       .text	00000000 .Loc.21
00007154 l       .text	00000000 .Loc.22
00007156 l       .text	00000000 .Loc.23
00007158 l       .text	00000000 .Loc.24
0000715a l       .text	00000000 .Loc.25
0000715c l       .text	00000000 .Loc.26
0000715e l       .text	00000000 .Loc.27
00007160 l       .text	00000000 .Loc.28
00007162 l       .text	00000000 waitForJ
00007162 l       .text	00000000 .Loc.29
00007164 l       .text	00000000 .Loc.30
00007166 l       .text	00000000 .Loc.31
00007168 l       .text	00000000 waitForK
00007168 l       .text	00000000 .Loc.32
0000716a l       .text	00000000 .Loc.33
00007182 l       .text	00000000 foundK
0000716c l       .text	00000000 .Loc.34
0000716e l       .text	00000000 .Loc.35
00007170 l       .text	00000000 .Loc.36
00007172 l       .text	00000000 .Loc.37
00007174 l       .text	00000000 .Loc.38
00007176 l       .text	00000000 .Loc.39
00007178 l       .text	00000000 .Loc.40
0000717a l       .text	00000000 .Loc.41
0000717c l       .text	00000000 .Loc.42
0000717e l       .text	00000000 .Loc.43
00007180 l       .text	00000000 .Loc.44
00007294 l       .text	00000000 sofError
00007182 l       .text	00000000 .Loc.45
00007184 l       .text	00000000 .Loc.46
00007188 l       .text	00000000 .Loc.47
0000718a l       .text	00000000 .Loc.48
0000718c l       .text	00000000 .Loc.49
0000718e l       .text	00000000 .Loc.50
00007190 l       .text	00000000 .Loc.51
00007192 l       .text	00000000 .Loc.52
00007194 l       .text	00000000 .Loc.53
0000719c l       .text	00000000 haveTwoBitsK
00007196 l       .text	00000000 .Loc.54
00007198 l       .text	00000000 .Loc.55
0000719a l       .text	00000000 .Loc.56
0000719c l       .text	00000000 .Loc.57
0000719e l       .text	00000000 .Loc.58
000071a0 l       .text	00000000 .Loc.59
000071a2 l       .text	00000000 .Loc.60
000071a4 l       .text	00000000 .Loc.61
000071a6 l       .text	00000000 .Loc.62
000071a8 l       .text	00000000 .Loc.63
000071aa l       .text	00000000 .Loc.64
000071ac l       .text	00000000 .Loc.65
000071ae l       .text	00000000 .Loc.66
000071b0 l       .text	00000000 .Loc.67
000071b2 l       .text	00000000 .Loc.68
000071b4 l       .text	00000000 .Loc.69
000071b6 l       .text	00000000 .Loc.70
0000722a l       .text	00000000 rxbit1
000071b8 l       .text	00000000 unstuff6
000071b8 l       .text	00000000 .Loc.71
000071ba l       .text	00000000 .Loc.72
000071bc l       .text	00000000 .Loc.73
000071be l       .text	00000000 .Loc.74
000071c0 l       .text	00000000 .Loc.75
000071c2 l       .text	00000000 .Loc.76
00007200 l       .text	00000000 didUnstuff6
000071c4 l       .text	00000000 unstuff7
000071c4 l       .text	00000000 .Loc.77
000071c6 l       .text	00000000 .Loc.78
000071c8 l       .text	00000000 .Loc.79
000071ca l       .text	00000000 .Loc.80
000071cc l       .text	00000000 .Loc.81
000071ce l       .text	00000000 .Loc.82
0000720e l       .text	00000000 didUnstuff7
000071d0 l       .text	00000000 unstuffEven
000071d0 l       .text	00000000 .Loc.83
000071d2 l       .text	00000000 .Loc.84
000071d4 l       .text	00000000 .Loc.85
000071d6 l       .text	00000000 .Loc.86
000071d8 l       .text	00000000 .Loc.87
0000724e l       .text	00000000 se0
000071da l       .text	00000000 .Loc.88
000071dc l       .text	00000000 .Loc.89
000071de l       .text	00000000 L0
000071de l       .text	00000000 .Loc.90
00007226 l       .text	00000000 didUnstuffE
000071e0 l       .text	00000000 unstuffOdd
000071e0 l       .text	00000000 .Loc.91
000071e2 l       .text	00000000 .Loc.92
000071e4 l       .text	00000000 .Loc.93
000071e6 l       .text	00000000 .Loc.94
000071e8 l       .text	00000000 .Loc.95
000071ea l       .text	00000000 .Loc.96
000071ec l       .text	00000000 .Loc.97
000071ee l       .text	00000000 L0
000071ee l       .text	00000000 .Loc.98
0000723a l       .text	00000000 didUnstuffO
000071f0 l       .text	00000000 rxByteLoop
000071f0 l       .text	00000000 .Loc.99
000071f2 l       .text	00000000 .Loc.100
000071f4 l       .text	00000000 .Loc.101
000071f6 l       .text	00000000 .Loc.102
000071fc l       .text	00000000 skipLeap
000071f8 l       .text	00000000 .Loc.103
000071fa l       .text	00000000 .Loc.104
000071fc l       .text	00000000 .Loc.105
000071fe l       .text	00000000 .Loc.106
00007200 l       .text	00000000 .Loc.107
00007202 l       .text	00000000 .Loc.108
00007204 l       .text	00000000 .Loc.109
00007206 l       .text	00000000 .Loc.110
00007208 l       .text	00000000 .Loc.111
0000720a l       .text	00000000 .Loc.112
0000720c l       .text	00000000 .Loc.113
0000720e l       .text	00000000 .Loc.114
00007210 l       .text	00000000 .Loc.115
00007212 l       .text	00000000 .Loc.116
00007214 l       .text	00000000 .Loc.117
00007216 l       .text	00000000 rxBitLoop
00007216 l       .text	00000000 .Loc.118
00007218 l       .text	00000000 .Loc.119
0000721a l       .text	00000000 .Loc.120
0000721c l       .text	00000000 .Loc.121
0000721e l       .text	00000000 .Loc.122
00007220 l       .text	00000000 .Loc.123
00007222 l       .text	00000000 .Loc.124
00007224 l       .text	00000000 .Loc.125
00007226 l       .text	00000000 .Loc.126
00007228 l       .text	00000000 .Loc.127
0000722a l       .text	00000000 .Loc.128
0000722c l       .text	00000000 .Loc.129
0000722e l       .text	00000000 .Loc.130
00007230 l       .text	00000000 .Loc.131
00007232 l       .text	00000000 .Loc.132
00007234 l       .text	00000000 .Loc.133
00007236 l       .text	00000000 .Loc.134
00007238 l       .text	00000000 .Loc.135
0000723a l       .text	00000000 .Loc.136
0000723c l       .text	00000000 .Loc.137
0000723e l       .text	00000000 .Loc.138
00007240 l       .text	00000000 .Loc.139
00007242 l       .text	00000000 .Loc.140
00007244 l       .text	00000000 .Loc.141
00007246 l       .text	00000000 overflow
00007246 l       .text	00000000 .Loc.142
00007248 l       .text	00000000 .Loc.143
0000724a l       .text	00000000 ignorePacket
0000724a l       .text	00000000 .Loc.144
0000724c l       .text	00000000 .Loc.145
0000727c l       .text	00000000 storeTokenAndReturn
0000724e l       .text	00000000 .Loc.146
00007250 l       .text	00000000 .Loc.147
00007252 l       .text	00000000 .Loc.148
00007254 l       .text	00000000 .Loc.149
00007256 l       .text	00000000 .Loc.150
00007258 l       .text	00000000 .Loc.151
0000725a l       .text	00000000 .Loc.152
0000725c l       .text	00000000 .Loc.153
0000725e l       .text	00000000 .Loc.154
0000729e l       .text	00000000 handleData
00007260 l       .text	00000000 .Loc.155
00007262 l       .text	00000000 .Loc.156
00007264 l       .text	00000000 .Loc.157
00007268 l       .text	00000000 .Loc.158
0000726a l       .text	00000000 .Loc.159
0000726c l       .text	00000000 .Loc.160
0000726e l       .text	00000000 .Loc.161
00007270 l       .text	00000000 .Loc.162
00007272 l       .text	00000000 .Loc.163
000072c8 l       .text	00000000 handleIn
00007274 l       .text	00000000 .Loc.164
00007276 l       .text	00000000 .Loc.165
0000727c l       .text	00000000 handleSetupOrOut
00007278 l       .text	00000000 .Loc.166
0000727a l       .text	00000000 .Loc.167
0000727c l       .text	00000000 .Loc.168
00007280 l       .text	00000000 doReturn
00007280 l       .text	00000000 .Loc.169
0000728e l       .text	00000000 .Loc.170
00007290 l       .text	00000000 .Loc.171
00007292 l       .text	00000000 .Loc.172
00007294 l       .text	00000000 .Loc.173
0000729c l       .text	00000000 .Loc.174
0000729e l       .text	00000000 .Loc.175
000072a2 l       .text	00000000 .Loc.176
000072a4 l       .text	00000000 .Loc.177
000072a6 l       .text	00000000 .Loc.178
000072aa l       .text	00000000 .Loc.179
000072ac l       .text	00000000 .Loc.180
000072fc l       .text	00000000 sendNakAndReti
000072ae l       .text	00000000 .Loc.181
000072b0 l       .text	00000000 .Loc.182
00007300 l       .text	00000000 sendAckAndReti
000072b2 l       .text	00000000 .Loc.183
000072b6 l       .text	00000000 .Loc.184
000072ba l       .text	00000000 .Loc.185
000072be l       .text	00000000 .Loc.186
000072c0 l       .text	00000000 .Loc.187
000072c2 l       .text	00000000 .Loc.188
000072c6 l       .text	00000000 .Loc.189
000072c8 l       .text	00000000 .Loc.190
000072cc l       .text	00000000 .Loc.191
000072ce l       .text	00000000 .Loc.192
000072d0 l       .text	00000000 .Loc.193
000072d2 l       .text	00000000 .Loc.194
000072d6 l       .text	00000000 .Loc.195
000072d8 l       .text	00000000 .Loc.196
00007302 l       .text	00000000 sendCntAndReti
000072da l       .text	00000000 .Loc.197
000072de l       .text	00000000 .Loc.198
000072e0 l       .text	00000000 .Loc.199
000072e2 l       .text	00000000 .Loc.200
0000730a l       .text	00000000 usbSendAndReti
000072e4 l       .text	00000000 bitstuffN
000072e4 l       .text	00000000 .Loc.201
000072e6 l       .text	00000000 .Loc.202
000072e8 l       .text	00000000 .Loc.203
000072ea l       .text	00000000 L0
000072ea l       .text	00000000 .Loc.204
000072ec l       .text	00000000 .Loc.205
000072ee l       .text	00000000 .Loc.206
00007324 l       .text	00000000 didStuffN
000072f0 l       .text	00000000 bitstuff6
000072f0 l       .text	00000000 .Loc.207
000072f2 l       .text	00000000 .Loc.208
000072f4 l       .text	00000000 .Loc.209
000072f6 l       .text	00000000 .Loc.210
00007332 l       .text	00000000 didStuff6
000072f8 l       .text	00000000 bitstuff7
000072f8 l       .text	00000000 .Loc.211
000072fa l       .text	00000000 .Loc.212
0000733e l       .text	00000000 didStuff7
000072fc l       .text	00000000 .Loc.213
000072fe l       .text	00000000 .Loc.214
00007304 l       .text	00000000 sendX3AndReti
00007300 l       .text	00000000 .Loc.215
00007302 l       .text	00000000 .Loc.216
00007304 l       .text	00000000 .Loc.217
00007306 l       .text	00000000 .Loc.218
00007308 l       .text	00000000 .Loc.219
0000730a l       .text	00000000 .Loc.220
0000730c l       .text	00000000 .Loc.221
0000730e l       .text	00000000 .Loc.222
00007310 l       .text	00000000 .Loc.223
00007312 l       .text	00000000 .Loc.224
00007314 l       .text	00000000 .Loc.225
00007316 l       .text	00000000 .Loc.226
00007318 l       .text	00000000 txByteLoop
00007318 l       .text	00000000 .Loc.227
0000731a l       .text	00000000 txBitLoop
0000731a l       .text	00000000 .Loc.228
0000731c l       .text	00000000 .Loc.229
0000731e l       .text	00000000 .Loc.230
00007320 l       .text	00000000 .Loc.231
00007322 l       .text	00000000 .Loc.232
00007324 l       .text	00000000 .Loc.233
00007326 l       .text	00000000 .Loc.234
00007328 l       .text	00000000 .Loc.235
0000732a l       .text	00000000 .Loc.236
0000732c l       .text	00000000 .Loc.237
0000732e l       .text	00000000 .Loc.238
00007330 l       .text	00000000 .Loc.239
00007332 l       .text	00000000 .Loc.240
00007334 l       .text	00000000 .Loc.241
00007336 l       .text	00000000 .Loc.242
00007338 l       .text	00000000 .Loc.243
0000733a l       .text	00000000 .Loc.244
0000733c l       .text	00000000 .Loc.245
0000733e l       .text	00000000 .Loc.246
00007340 l       .text	00000000 .Loc.247
00007342 l       .text	00000000 .Loc.248
00007344 l       .text	00000000 .Loc.249
00007346 l       .text	00000000 .Loc.250
00007348 l       .text	00000000 .Loc.251
0000734a l       .text	00000000 .Loc.252
0000734c l       .text	00000000 .Loc.253
0000734e l       .text	00000000 .Loc.254
00007350 l       .text	00000000 .Loc.255
00007352 l       .text	00000000 .Loc.256
00007354 l       .text	00000000 .Loc.257
00007358 l       .text	00000000 .Loc.258
0000735a l       .text	00000000 .Loc.259
0000735c l       .text	00000000 .Loc.260
0000735e l       .text	00000000 .Loc.261
00007360 l       .text	00000000 .Loc.262
00007366 l       .text	00000000 skipAddrAssign
00007362 l       .text	00000000 .Loc.263
00007366 l       .text	00000000 .Loc.264
00007368 l       .text	00000000 .Loc.265
0000736a l       .text	00000000 .Loc.266
0000736c l       .text	00000000 .Loc.267
0000736e l       .text	00000000 .Loc.268
00007370 l       .text	00000000 .Loc.269
00007372 l       .text	00000000 .Loc.270
00007374 l       .text	00000000 .Loc.271
00007376 l       .text	00000000 se0Delay
00007376 l       .text	00000000 .Loc.272
00007378 l       .text	00000000 .Loc.273
0000737a l       .text	00000000 .Loc.274
0000737c l       .text	00000000 .Loc.275
0000737e l       .text	00000000 .Loc.276
00007380 l       .text	00000000 .Loc.277
00007382 l       .text	00000000 L0
00007128 l       .text	00000000 L0
00007382 l       .text	00000000 L0
00000000 l    df *ABS*	00000000 eerd_byte.o
00007854 l       .text	00000000 .L11
00000000 l    df *ABS*	00000000 eewr_byte.o
00007866 l       .text	00000000 .L11
00000000 l    df *ABS*	00000000 _exit.o
00007880 l       .text	00000000 .Loc.0
00007882 l       .text	00000000 __stop_program
00007882 l       .text	00000000 .Loc.1
00007884 l       .text	00000000 L0
00007880 l       .text	00000000 L0
00007884 l       .text	00000000 L0
00007098 g     O .text	00000012 usbDescriptorDevice
00007126  w      .text	00000000 __vector_22
00007866 g       .text	00000000 eeprom_write_r18
0000715a g     F .text	00000000 __vector_1
00800108 g     O .bss	0000000b usbTxBuf
00000000 g       *ABS*	00000000 nullVector
0000ffa0 g       *ABS*	00000000 __DATA_REGION_LENGTH__
00007086 g       .text	00000000 __trampolines_start
00007884 g       .text	00000000 _etext
000070d4 g     O .text	00000004 usbDescriptorString0
00007126  w      .text	00000000 __vector_24
00007126  w      .text	00000000 __vector_12
00007126 g       .text	00000000 __bad_interrupt
0000788a g       *ABS*	00000000 __data_load_end
00007126  w      .text	00000000 __vector_6
00007128 g       .text	00000000 usbCrc16
00007086 g       .text	00000000 __trampolines_end
00007126  w      .text	00000000 __vector_3
000070e4 g     F .text	00000018 __BOOTLOADERENTRY_FROMSOFTWARE__bootup_investigate_RAMEND
00007126  w      .text	00000000 __vector_23
00007884 g       *ABS*	00000000 __data_load_start
000070d8 g       .text	00000000 __dtors_end
0080013b g       .bss	00000000 __bss_end
00000400 g       *ABS*	00000000 __LOCK_REGION_LENGTH__
00007126  w      .text	00000000 __vector_25
00007068 g     O .text	0000001e bootloader__do_spm
00007864 g     F .text	0000001c eeprom_write_byte
00007126  w      .text	00000000 __vector_11
000070d8  w      .text	00000000 __init
00007126  w      .text	00000000 __vector_13
00007152 g       .text	00000000 usbCrc16Append
00007126  w      .text	00000000 __vector_17
00007126  w      .text	00000000 __vector_19
00007126  w      .text	00000000 __vector_7
00007086 g     O .text	00000012 usbDescriptorConfiguration
00007112 g       .text	00000010 .hidden __do_clear_bss
00800118 g     O .bss	00000001 usbDeviceAddr
00810000 g       .comment	00000000 __eeprom_end
00800113 g     O .bss	00000001 usbRxToken
00007000 g       .text	00000000 __vectors
00007854 g     F .text	00000010 eeprom_read_byte
00800106 g       .data	00000000 __data_end
000070b8 g     O .text	0000001c usbDescriptorStringVendor
00800119 g     O .bss	00000001 usbInputBufOffset
00007000  w      .text	00000000 __vector_default
00007126  w      .text	00000000 __vector_5
00000400 g       *ABS*	00000000 __SIGNATURE_REGION_LENGTH__
000070d8 g       .text	00000000 __ctors_start
000070fc g       .text	00000016 .hidden __do_copy_data
00007382 g     F .text	0000009a usbFunctionSetup_USBASP_FUNC_TRANSMIT
00800106 g       .bss	00000000 __bss_start
0000741c g     F .text	00000438 main
00007126  w      .text	00000000 __vector_4
00800060 g       *ABS*	00000000 __DATA_REGION_ORIGIN__
00800101 g     O .data	00000001 usbTxLen
00000000  w      *ABS*	00000000 __heap_end
00007126  w      .text	00000000 __vector_9
00007126  w      .text	00000000 __vector_2
00000400 g       *ABS*	00000000 __USER_SIGNATURE_REGION_LENGTH__
00800106 g     O .bss	00000002 usbMsgPtr
00007126  w      .text	00000000 __vector_21
00007126  w      .text	00000000 __vector_15
00800115 g     O .bss	00000001 usbRxLen
000070d8 g       .text	00000000 __dtors_start
000070d8 g       .text	00000000 __ctors_end
000008ff  w      *ABS*	00000000 __stack
00800117 g     O .bss	00000001 usbNewDeviceAddr
00800106 g       .data	00000000 _edata
0080013d g       .noinit	00000000 _end
00007126  w      .text	00000000 __vector_8
00007880  w      .text	00000000 .hidden exit
00800114 g     O .bss	00000001 usbCurrentTok
000070aa g     O .text	0000000e usbDescriptorStringDevice
00010000 g       *ABS*	00000000 __EEPROM_REGION_LENGTH__
00007880 g       .text	00000000 .hidden _exit
00800116 g     O .bss	00000001 usbConfiguration
00007126  w      .text	00000000 __vector_14
00007126  w      .text	00000000 __vector_10
0080011a g     O .bss	00000016 usbRxBuf
00007126  w      .text	00000000 __vector_16
00800100 g       .data	00000000 __data_start
00007126  w      .text	00000000 __vector_18
00000003 g       *ABS*	00000000 __FUSE_REGION_LENGTH__
00020000 g       *ABS*	00000000 __TEXT_REGION_LENGTH__
00007126  w      .text	00000000 __vector_20



Disassembly of section .text:

00007000 <__vectors>:
    7000:	6b c0       	rjmp	.+214    	; 0x70d8 <__ctors_end>
    7002:	00 00       	nop
    7004:	aa c0       	rjmp	.+340    	; 0x715a <__vector_1>
    7006:	00 00       	nop
    7008:	8e c0       	rjmp	.+284    	; 0x7126 <__bad_interrupt>
    700a:	00 00       	nop
    700c:	8c c0       	rjmp	.+280    	; 0x7126 <__bad_interrupt>
    700e:	00 00       	nop
    7010:	8a c0       	rjmp	.+276    	; 0x7126 <__bad_interrupt>
    7012:	00 00       	nop
    7014:	88 c0       	rjmp	.+272    	; 0x7126 <__bad_interrupt>
    7016:	00 00       	nop
    7018:	86 c0       	rjmp	.+268    	; 0x7126 <__bad_interrupt>
    701a:	00 00       	nop
    701c:	84 c0       	rjmp	.+264    	; 0x7126 <__bad_interrupt>
    701e:	00 00       	nop
    7020:	82 c0       	rjmp	.+260    	; 0x7126 <__bad_interrupt>
    7022:	00 00       	nop
    7024:	80 c0       	rjmp	.+256    	; 0x7126 <__bad_interrupt>
    7026:	00 00       	nop
    7028:	7e c0       	rjmp	.+252    	; 0x7126 <__bad_interrupt>
    702a:	00 00       	nop
    702c:	7c c0       	rjmp	.+248    	; 0x7126 <__bad_interrupt>
    702e:	00 00       	nop
    7030:	7a c0       	rjmp	.+244    	; 0x7126 <__bad_interrupt>
    7032:	00 00       	nop
    7034:	78 c0       	rjmp	.+240    	; 0x7126 <__bad_interrupt>
    7036:	00 00       	nop
    7038:	76 c0       	rjmp	.+236    	; 0x7126 <__bad_interrupt>
    703a:	00 00       	nop
    703c:	74 c0       	rjmp	.+232    	; 0x7126 <__bad_interrupt>
    703e:	00 00       	nop
    7040:	72 c0       	rjmp	.+228    	; 0x7126 <__bad_interrupt>
    7042:	00 00       	nop
    7044:	70 c0       	rjmp	.+224    	; 0x7126 <__bad_interrupt>
    7046:	00 00       	nop
    7048:	6e c0       	rjmp	.+220    	; 0x7126 <__bad_interrupt>
    704a:	00 00       	nop
    704c:	6c c0       	rjmp	.+216    	; 0x7126 <__bad_interrupt>
    704e:	00 00       	nop
    7050:	6a c0       	rjmp	.+212    	; 0x7126 <__bad_interrupt>
    7052:	00 00       	nop
    7054:	68 c0       	rjmp	.+208    	; 0x7126 <__bad_interrupt>
    7056:	00 00       	nop
    7058:	66 c0       	rjmp	.+204    	; 0x7126 <__bad_interrupt>
    705a:	00 00       	nop
    705c:	64 c0       	rjmp	.+200    	; 0x7126 <__bad_interrupt>
    705e:	00 00       	nop
    7060:	62 c0       	rjmp	.+196    	; 0x7126 <__bad_interrupt>
    7062:	00 00       	nop
    7064:	60 c0       	rjmp	.+192    	; 0x7126 <__bad_interrupt>
	...

00007068 <bootloader__do_spm>:
    7068:	ec 2d fd 2d b7 b6 b0 fc fd cf 27 bf e8 95 b7 b6     .-.-......'.....
    7078:	b0 fc fd cf 21 e1 b7 b6 b6 fc f4 cf 08 95           ....!.........

00007086 <usbDescriptorConfiguration>:
    7086:	09 02 12 00 01 01 00 80 32 09 04 00 00 00 00 00     ........2.......
	...

00007098 <usbDescriptorDevice>:
    7098:	12 01 10 01 ff 00 00 08 c0 16 dc 05 02 01 01 02     ................
    70a8:	00 01                                               ..

000070aa <usbDescriptorStringDevice>:
    70aa:	0e 03 55 00 53 00 42 00 61 00 73 00 70 00           ..U.S.B.a.s.p.

000070b8 <usbDescriptorStringVendor>:
    70b8:	1c 03 77 00 77 00 77 00 2e 00 66 00 69 00 73 00     ..w.w.w...f.i.s.
    70c8:	63 00 68 00 6c 00 2e 00 64 00 65 00                 c.h.l...d.e.

000070d4 <usbDescriptorString0>:
    70d4:	04 03 09 04                                         ....

000070d8 <__ctors_end>:
    70d8:	11 24       	eor	r1, r1
    70da:	1f be       	out	0x3f, r1	; 63
    70dc:	cf ef       	ldi	r28, 0xFF	; 255
    70de:	d8 e0       	ldi	r29, 0x08	; 8
    70e0:	de bf       	out	0x3e, r29	; 62
    70e2:	cd bf       	out	0x3d, r28	; 61

000070e4 <__BOOTLOADERENTRY_FROMSOFTWARE__bootup_investigate_RAMEND>:
/* ------------------------------------------------------------------------ */

#if (HAVE_BOOTLOADERENTRY_FROMSOFTWARE)
void __attribute__ ((section(".init3"),naked,used,no_instrument_function)) __BOOTLOADERENTRY_FROMSOFTWARE__bootup_investigate_RAMEND(void);
void __BOOTLOADERENTRY_FROMSOFTWARE__bootup_investigate_RAMEND(void) {
  asm volatile (
    70e4:	24 b7       	in	r18, 0x34	; 52
    70e6:	d8 e0       	ldi	r29, 0x08	; 8
    70e8:	ce ef       	ldi	r28, 0xFE	; 254
    70ea:	39 91       	ld	r19, Y+
    70ec:	38 33       	cpi	r19, 0x38	; 56
    70ee:	39 91       	ld	r19, Y+
    70f0:	09 f0       	breq	.+2      	; 0x70f4 <__BOOTLOADERENTRY_FROMSOFTWARE__bootup_investigate_RAMEND_done6>

000070f2 <__BOOTLOADERENTRY_FROMSOFTWARE__bootup_investigate_RAMEND_mismatch6>:
    70f2:	3f ef       	ldi	r19, 0xFF	; 255

000070f4 <__BOOTLOADERENTRY_FROMSOFTWARE__bootup_investigate_RAMEND_done6>:
    70f4:	30 93 3c 01 	sts	0x013C, r19	; 0x80013c <__BOOTLOADERENTRY_FROMSOFTWARE__bootup_RAMEND_doesmatch>
    70f8:	20 93 3b 01 	sts	0x013B, r18	; 0x80013b <__BOOTLOADERENTRY_FROMSOFTWARE__bootup_MCUCSR>

000070fc <__do_copy_data>:
    70fc:	11 e0       	ldi	r17, 0x01	; 1

000070fe <.Loc.1>:
    70fe:	a0 e0       	ldi	r26, 0x00	; 0

00007100 <.Loc.2>:
    7100:	b1 e0       	ldi	r27, 0x01	; 1

00007102 <.Loc.3>:
    7102:	e4 e8       	ldi	r30, 0x84	; 132

00007104 <.Loc.4>:
    7104:	f8 e7       	ldi	r31, 0x78	; 120

00007106 <.Loc.5>:
    7106:	02 c0       	rjmp	.+4      	; 0x710c <.L__do_copy_data_start>

00007108 <.L__do_copy_data_loop>:
    7108:	05 90       	lpm	r0, Z+

0000710a <.Loc.7>:
    710a:	0d 92       	st	X+, r0

0000710c <.L__do_copy_data_start>:
    710c:	a6 30       	cpi	r26, 0x06	; 6

0000710e <.Loc.9>:
    710e:	b1 07       	cpc	r27, r17

00007110 <.Loc.10>:
    7110:	d9 f7       	brne	.-10     	; 0x7108 <.L__do_copy_data_loop>

00007112 <__do_clear_bss>:
    7112:	21 e0       	ldi	r18, 0x01	; 1

00007114 <.Loc.1>:
    7114:	a6 e0       	ldi	r26, 0x06	; 6

00007116 <.Loc.2>:
    7116:	b1 e0       	ldi	r27, 0x01	; 1

00007118 <.Loc.3>:
    7118:	01 c0       	rjmp	.+2      	; 0x711c <.Loc.5>

0000711a <.Loc.4>:
    711a:	1d 92       	st	X+, r1

0000711c <.Loc.5>:
    711c:	ab 33       	cpi	r26, 0x3B	; 59

0000711e <.Loc.6>:
    711e:	b2 07       	cpc	r27, r18

00007120 <.Loc.7>:
    7120:	e1 f7       	brne	.-8      	; 0x711a <.Loc.4>

00007122 <L0^A>:
    7122:	7c d1       	rcall	.+760    	; 0x741c <main>
    7124:	ad c3       	rjmp	.+1882   	; 0x7880 <_exit>

00007126 <__bad_interrupt>:
    7126:	6c cf       	rjmp	.-296    	; 0x7000 <__vectors>

00007128 <usbCrc16>:
;   poly    r20+r21
;   scratch r23
;   resCrc  r24+r25 / r16+r17
;   ptr     X / Z
usbCrc16:
    mov     ptrL, argPtrL
    7128:	a8 2f       	mov	r26, r24

0000712a <.Loc.1>:
    mov     ptrH, argPtrH
    712a:	b9 2f       	mov	r27, r25

0000712c <.Loc.2>:
    ldi     resCrcL, 0
    712c:	80 e0       	ldi	r24, 0x00	; 0

0000712e <.Loc.3>:
    ldi     resCrcH, 0
    712e:	90 e0       	ldi	r25, 0x00	; 0

00007130 <.Loc.4>:
    ldi     polyL, lo8(0xa001)
    7130:	41 e0       	ldi	r20, 0x01	; 1

00007132 <.Loc.5>:
    ldi     polyH, hi8(0xa001)
    7132:	50 ea       	ldi	r21, 0xA0	; 160

00007134 <.Loc.6>:
    com     argLen      ; argLen = -argLen - 1: modified loop to ensure that carry is set
    7134:	60 95       	com	r22

00007136 <.Loc.7>:
    ldi     bitCnt, 0   ; loop counter with starnd condition = end condition
    7136:	30 e0       	ldi	r19, 0x00	; 0

00007138 <.Loc.8>:
    rjmp    usbCrcLoopEntry
    7138:	09 c0       	rjmp	.+18     	; 0x714c <usbCrcLoopEntry>

0000713a <usbCrcByteLoop>:
usbCrcByteLoop:
    ld      byte, ptr+
    713a:	2d 91       	ld	r18, X+

0000713c <.Loc.10>:
    eor     resCrcL, byte
    713c:	82 27       	eor	r24, r18

0000713e <usbCrcBitLoop>:
usbCrcBitLoop:
    ror     resCrcH     ; carry is always set here (see brcs jumps to here)
    713e:	97 95       	ror	r25

00007140 <.Loc.12>:
    ror     resCrcL
    7140:	87 95       	ror	r24

00007142 <.Loc.13>:
    brcs    usbCrcNoXor
    7142:	10 f0       	brcs	.+4      	; 0x7148 <usbCrcNoXor>

00007144 <.Loc.14>:
    eor     resCrcL, polyL
    7144:	84 27       	eor	r24, r20

00007146 <.Loc.15>:
    eor     resCrcH, polyH
    7146:	95 27       	eor	r25, r21

00007148 <usbCrcNoXor>:
usbCrcNoXor:
    subi    bitCnt, 224 ; (8 * 224) % 256 = 0; this loop iterates 8 times
    7148:	30 5e       	subi	r19, 0xE0	; 224

0000714a <.Loc.17>:
    brcs    usbCrcBitLoop
    714a:	c8 f3       	brcs	.-14     	; 0x713e <usbCrcBitLoop>

0000714c <usbCrcLoopEntry>:
usbCrcLoopEntry:
    subi    argLen, -1
    714c:	6f 5f       	subi	r22, 0xFF	; 255

0000714e <.Loc.19>:
    brcs    usbCrcByteLoop
    714e:	a8 f3       	brcs	.-22     	; 0x713a <usbCrcByteLoop>

00007150 <usbCrcReady>:
usbCrcReady:
    ret
    7150:	08 95       	ret

00007152 <usbCrc16Append>:

#endif /* USB_USE_FAST_CRC */

; extern unsigned usbCrc16Append(unsigned char *data, unsigned char len);
usbCrc16Append:
    rcall   usbCrc16
    7152:	ea df       	rcall	.-44     	; 0x7128 <usbCrc16>

00007154 <.Loc.22>:
    st      ptr+, resCrcL
    7154:	8d 93       	st	X+, r24

00007156 <.Loc.23>:
    st      ptr+, resCrcH
    7156:	9d 93       	st	X+, r25

00007158 <.Loc.24>:
    ret
    7158:	08 95       	ret

0000715a <__vector_1>:
; Numbers in brackets are clocks counted from center of last sync bit
; when instruction starts

USB_INTR_VECTOR:
;order of registers pushed: YL, SREG YH, [sofError], bitcnt, shift, x1, x2, x3, x4, cnt
    push    YL                  ;[-25] push only what is necessary to sync with edge ASAP
    715a:	cf 93       	push	r28

0000715c <.Loc.26>:
    in      YL, SREG            ;[-23]
    715c:	cf b7       	in	r28, 0x3f	; 63

0000715e <.Loc.27>:
    push    YL                  ;[-22]
    715e:	cf 93       	push	r28

00007160 <.Loc.28>:
    push    YH                  ;[-20]
    7160:	df 93       	push	r29

00007162 <waitForJ>:
;sync up with J to K edge during sync pattern -- use fastest possible loops
;The first part waits at most 1 bit long since we must be in sync pattern.
;YL is guarenteed to be < 0x80 because I flag is clear. When we jump to
;waitForJ, ensure that this prerequisite is met.
waitForJ:
    inc     YL
    7162:	c3 95       	inc	r28

00007164 <.Loc.30>:
    sbis    USBIN, USBMINUS
    7164:	4b 9b       	sbis	0x09, 3	; 9

00007166 <.Loc.31>:
    brne    waitForJ        ; just make sure we have ANY timeout
    7166:	e9 f7       	brne	.-6      	; 0x7162 <waitForJ>

00007168 <waitForK>:
waitForK:
;The following code results in a sampling window of < 1/4 bit which meets the spec.
    sbis    USBIN, USBMINUS     ;[-15]
    7168:	4b 9b       	sbis	0x09, 3	; 9

0000716a <.Loc.33>:
    rjmp    foundK              ;[-14]
    716a:	0b c0       	rjmp	.+22     	; 0x7182 <foundK>

0000716c <.Loc.34>:
    sbis    USBIN, USBMINUS
    716c:	4b 9b       	sbis	0x09, 3	; 9

0000716e <.Loc.35>:
    rjmp    foundK
    716e:	09 c0       	rjmp	.+18     	; 0x7182 <foundK>

00007170 <.Loc.36>:
    sbis    USBIN, USBMINUS
    7170:	4b 9b       	sbis	0x09, 3	; 9

00007172 <.Loc.37>:
    rjmp    foundK
    7172:	07 c0       	rjmp	.+14     	; 0x7182 <foundK>

00007174 <.Loc.38>:
    sbis    USBIN, USBMINUS
    7174:	4b 9b       	sbis	0x09, 3	; 9

00007176 <.Loc.39>:
    rjmp    foundK
    7176:	05 c0       	rjmp	.+10     	; 0x7182 <foundK>

00007178 <.Loc.40>:
    sbis    USBIN, USBMINUS
    7178:	4b 9b       	sbis	0x09, 3	; 9

0000717a <.Loc.41>:
    rjmp    foundK
    717a:	03 c0       	rjmp	.+6      	; 0x7182 <foundK>

0000717c <.Loc.42>:
    sbis    USBIN, USBMINUS
    717c:	4b 9b       	sbis	0x09, 3	; 9

0000717e <.Loc.43>:
    rjmp    foundK
    717e:	01 c0       	rjmp	.+2      	; 0x7182 <foundK>

00007180 <.Loc.44>:
    sts     usbSofCount, YL
#endif  /* USB_COUNT_SOF */
#ifdef USB_SOF_HOOK
    USB_SOF_HOOK
#endif
    rjmp    sofError
    7180:	89 c0       	rjmp	.+274    	; 0x7294 <sofError>

00007182 <foundK>:
foundK:                         ;[-12]
;{3, 5} after falling D- edge, average delay: 4 cycles [we want 5 for center sampling]
;we have 1 bit time for setup purposes, then sample again. Numbers in brackets
;are cycles from center of first sync (double K) bit after the instruction
    push    bitcnt              ;[-12]
    7182:	6f 93       	push	r22

00007184 <.Loc.46>:
;   [---]                       ;[-11]
    lds     YL, usbInputBufOffset;[-10]
    7184:	c0 91 19 01 	lds	r28, 0x0119	; 0x800119 <usbInputBufOffset>

00007188 <.Loc.47>:
;   [---]                       ;[-9]
    clr     YH                  ;[-8]
    7188:	dd 27       	eor	r29, r29

0000718a <.Loc.48>:
    subi    YL, lo8(-(usbRxBuf));[-7] [rx loop init]
    718a:	c6 5e       	subi	r28, 0xE6	; 230

0000718c <.Loc.49>:
    sbci    YH, hi8(-(usbRxBuf));[-6] [rx loop init]
    718c:	de 4f       	sbci	r29, 0xFE	; 254

0000718e <.Loc.50>:
    push    shift               ;[-5]
    718e:	2f 93       	push	r18

00007190 <.Loc.51>:
;   [---]                       ;[-4]
    ldi     bitcnt, 0x55        ;[-3] [rx loop init]
    7190:	65 e5       	ldi	r22, 0x55	; 85

00007192 <.Loc.52>:
    sbis    USBIN, USBMINUS     ;[-2] we want two bits K (sample 2 cycles too early)
    7192:	4b 9b       	sbis	0x09, 3	; 9

00007194 <.Loc.53>:
    rjmp    haveTwoBitsK        ;[-1]
    7194:	03 c0       	rjmp	.+6      	; 0x719c <haveTwoBitsK>

00007196 <.Loc.54>:
    pop     shift               ;[0] undo the push from before
    7196:	2f 91       	pop	r18

00007198 <.Loc.55>:
    pop     bitcnt              ;[2] undo the push from before
    7198:	6f 91       	pop	r22

0000719a <.Loc.56>:
    rjmp    waitForK            ;[4] this was not the end of sync, retry
    719a:	e6 cf       	rjmp	.-52     	; 0x7168 <waitForK>

0000719c <haveTwoBitsK>:

;----------------------------------------------------------------------------
; push more registers and initialize values while we sample the first bits:
;----------------------------------------------------------------------------
haveTwoBitsK:
    push    x1              ;[1]
    719c:	0f 93       	push	r16

0000719e <.Loc.58>:
    push    x2              ;[3]
    719e:	1f 93       	push	r17

000071a0 <.Loc.59>:
    push    x3              ;[5]
    71a0:	4f 93       	push	r20

000071a2 <.Loc.60>:
    ldi     shift, 0        ;[7]
    71a2:	20 e0       	ldi	r18, 0x00	; 0

000071a4 <.Loc.61>:
    ldi     x3, 1<<4        ;[8] [rx loop init] first sample is inverse bit, compensate that
    71a4:	40 e1       	ldi	r20, 0x10	; 16

000071a6 <.Loc.62>:
    push    x4              ;[9] == leap
    71a6:	5f 93       	push	r21

000071a8 <.Loc.63>:

    in      x1, USBIN       ;[11] <-- sample bit 0
    71a8:	09 b1       	in	r16, 0x09	; 9

000071aa <.Loc.64>:
    andi    x1, USBMASK     ;[12]
    71aa:	0c 70       	andi	r16, 0x0C	; 12

000071ac <.Loc.65>:
    bst     x1, USBMINUS    ;[13]
    71ac:	03 fb       	bst	r16, 3

000071ae <.Loc.66>:
    bld     shift, 7        ;[14]
    71ae:	27 f9       	bld	r18, 7

000071b0 <.Loc.67>:
    push    cnt             ;[15]
    71b0:	3f 93       	push	r19

000071b2 <.Loc.68>:
    ldi     leap, 0         ;[17] [rx loop init]
    71b2:	50 e0       	ldi	r21, 0x00	; 0

000071b4 <.Loc.69>:
    ldi     cnt, USB_BUFSIZE;[18] [rx loop init]
    71b4:	3b e0       	ldi	r19, 0x0B	; 11

000071b6 <.Loc.70>:
    rjmp    rxbit1          ;[19] arrives at [21]
    71b6:	39 c0       	rjmp	.+114    	; 0x722a <rxbit1>

000071b8 <unstuff6>:

; duration of unstuffing code should be 10.66666667 cycles. We adjust "leap"
; accordingly to approximate this value in the long run.

unstuff6:
    andi    x2, USBMASK ;[03]
    71b8:	1c 70       	andi	r17, 0x0C	; 12

000071ba <.Loc.72>:
    ori     x3, 1<<6    ;[04] will not be shifted any more
    71ba:	40 64       	ori	r20, 0x40	; 64

000071bc <.Loc.73>:
    andi    shift, ~0x80;[05]
    71bc:	2f 77       	andi	r18, 0x7F	; 127

000071be <.Loc.74>:
    mov     x1, x2      ;[06] sampled bit 7 is actually re-sampled bit 6
    71be:	01 2f       	mov	r16, r17

000071c0 <.Loc.75>:
    subi    leap, -1    ;[07] total duration = 11 bits -> subtract 1/3
    71c0:	5f 5f       	subi	r21, 0xFF	; 255

000071c2 <.Loc.76>:
    rjmp    didUnstuff6 ;[08]
    71c2:	1e c0       	rjmp	.+60     	; 0x7200 <didUnstuff6>

000071c4 <unstuff7>:

unstuff7:
    ori     x3, 1<<7    ;[09] will not be shifted any more
    71c4:	40 68       	ori	r20, 0x80	; 128

000071c6 <.Loc.78>:
    in      x2, USBIN   ;[00] [10]  re-sample bit 7
    71c6:	19 b1       	in	r17, 0x09	; 9

000071c8 <.Loc.79>:
    andi    x2, USBMASK ;[01]
    71c8:	1c 70       	andi	r17, 0x0C	; 12

000071ca <.Loc.80>:
    andi    shift, ~0x80;[02]
    71ca:	2f 77       	andi	r18, 0x7F	; 127

000071cc <.Loc.81>:
    subi    leap, 2     ;[03] total duration = 10 bits -> add 1/3
    71cc:	52 50       	subi	r21, 0x02	; 2

000071ce <.Loc.82>:
    rjmp    didUnstuff7 ;[04]
    71ce:	1f c0       	rjmp	.+62     	; 0x720e <didUnstuff7>

000071d0 <unstuffEven>:

unstuffEven:
    ori     x3, 1<<6    ;[09] will be shifted right 6 times for bit 0
    71d0:	40 64       	ori	r20, 0x40	; 64

000071d2 <.Loc.84>:
    in      x1, USBIN   ;[00] [10]
    71d2:	09 b1       	in	r16, 0x09	; 9

000071d4 <.Loc.85>:
    andi    shift, ~0x80;[01]
    71d4:	2f 77       	andi	r18, 0x7F	; 127

000071d6 <.Loc.86>:
    andi    x1, USBMASK ;[02]
    71d6:	0c 70       	andi	r16, 0x0C	; 12

000071d8 <.Loc.87>:
    breq    se0         ;[03]
    71d8:	d1 f1       	breq	.+116    	; 0x724e <se0>

000071da <.Loc.88>:
    subi    leap, -1    ;[04] total duration = 11 bits -> subtract 1/3
    71da:	5f 5f       	subi	r21, 0xFF	; 255

000071dc <.Loc.89>:
    nop2                ;[05]
    71dc:	00 c0       	rjmp	.+0      	; 0x71de <L0^A>

000071de <L0^A>:
    rjmp    didUnstuffE ;[06]
    71de:	23 c0       	rjmp	.+70     	; 0x7226 <didUnstuffE>

000071e0 <unstuffOdd>:

unstuffOdd:
    ori     x3, 1<<5    ;[09] will be shifted right 4 times for bit 1
    71e0:	40 62       	ori	r20, 0x20	; 32

000071e2 <.Loc.92>:
    in      x2, USBIN   ;[00] [10]
    71e2:	19 b1       	in	r17, 0x09	; 9

000071e4 <.Loc.93>:
    andi    shift, ~0x80;[01]
    71e4:	2f 77       	andi	r18, 0x7F	; 127

000071e6 <.Loc.94>:
    andi    x2, USBMASK ;[02]
    71e6:	1c 70       	andi	r17, 0x0C	; 12

000071e8 <.Loc.95>:
    breq    se0         ;[03]
    71e8:	91 f1       	breq	.+100    	; 0x724e <se0>

000071ea <.Loc.96>:
    subi    leap, -1    ;[04] total duration = 11 bits -> subtract 1/3
    71ea:	5f 5f       	subi	r21, 0xFF	; 255

000071ec <.Loc.97>:
    nop2                ;[05]
    71ec:	00 c0       	rjmp	.+0      	; 0x71ee <L0^A>

000071ee <L0^A>:
    rjmp    didUnstuffO ;[06]
    71ee:	25 c0       	rjmp	.+74     	; 0x723a <didUnstuffO>

000071f0 <rxByteLoop>:

rxByteLoop:
    andi    x1, USBMASK ;[03]
    71f0:	0c 70       	andi	r16, 0x0C	; 12

000071f2 <.Loc.100>:
    eor     x2, x1      ;[04]
    71f2:	10 27       	eor	r17, r16

000071f4 <.Loc.101>:
    subi    leap, 1     ;[05]
    71f4:	51 50       	subi	r21, 0x01	; 1

000071f6 <.Loc.102>:
    brpl    skipLeap    ;[06]
    71f6:	12 f4       	brpl	.+4      	; 0x71fc <skipLeap>

000071f8 <.Loc.103>:
    subi    leap, -3    ;1 one leap cycle every 3rd byte -> 85 + 1/3 cycles per byte
    71f8:	5d 5f       	subi	r21, 0xFD	; 253

000071fa <.Loc.104>:
	...

000071fc <skipLeap>:
    nop                 ;1
skipLeap:
    subi    x2, 1       ;[08]
    71fc:	11 50       	subi	r17, 0x01	; 1

000071fe <.Loc.106>:
    ror     shift       ;[09]
    71fe:	27 95       	ror	r18

00007200 <didUnstuff6>:
didUnstuff6:
    cpi     shift, 0xfc ;[10]
    7200:	2c 3f       	cpi	r18, 0xFC	; 252

00007202 <.Loc.108>:
    in      x2, USBIN   ;[00] [11] <-- sample bit 7
    7202:	19 b1       	in	r17, 0x09	; 9

00007204 <.Loc.109>:
    brcc    unstuff6    ;[01]
    7204:	c8 f6       	brcc	.-78     	; 0x71b8 <unstuff6>

00007206 <.Loc.110>:
    andi    x2, USBMASK ;[02]
    7206:	1c 70       	andi	r17, 0x0C	; 12

00007208 <.Loc.111>:
    eor     x1, x2      ;[03]
    7208:	01 27       	eor	r16, r17

0000720a <.Loc.112>:
    subi    x1, 1       ;[04]
    720a:	01 50       	subi	r16, 0x01	; 1

0000720c <.Loc.113>:
    ror     shift       ;[05]
    720c:	27 95       	ror	r18

0000720e <didUnstuff7>:
didUnstuff7:
    cpi     shift, 0xfc ;[06]
    720e:	2c 3f       	cpi	r18, 0xFC	; 252

00007210 <.Loc.115>:
    brcc    unstuff7    ;[07]
    7210:	c8 f6       	brcc	.-78     	; 0x71c4 <unstuff7>

00007212 <.Loc.116>:
    eor     x3, shift   ;[08] reconstruct: x3 is 1 at bit locations we changed, 0 at others
    7212:	42 27       	eor	r20, r18

00007214 <.Loc.117>:
    st      y+, x3      ;[09] store data
    7214:	49 93       	st	Y+, r20

00007216 <rxBitLoop>:
rxBitLoop:
    in      x1, USBIN   ;[00] [11] <-- sample bit 0/2/4
    7216:	09 b1       	in	r16, 0x09	; 9

00007218 <.Loc.119>:
    andi    x1, USBMASK ;[01]
    7218:	0c 70       	andi	r16, 0x0C	; 12

0000721a <.Loc.120>:
    eor     x2, x1      ;[02]
    721a:	10 27       	eor	r17, r16

0000721c <.Loc.121>:
    andi    x3, 0x3f    ;[03] topmost two bits reserved for 6 and 7
    721c:	4f 73       	andi	r20, 0x3F	; 63

0000721e <.Loc.122>:
    subi    x2, 1       ;[04]
    721e:	11 50       	subi	r17, 0x01	; 1

00007220 <.Loc.123>:
    ror     shift       ;[05]
    7220:	27 95       	ror	r18

00007222 <.Loc.124>:
    cpi     shift, 0xfc ;[06]
    7222:	2c 3f       	cpi	r18, 0xFC	; 252

00007224 <.Loc.125>:
    brcc    unstuffEven ;[07]
    7224:	a8 f6       	brcc	.-86     	; 0x71d0 <unstuffEven>

00007226 <didUnstuffE>:
didUnstuffE:
    lsr     x3          ;[08]
    7226:	46 95       	lsr	r20

00007228 <.Loc.127>:
    lsr     x3          ;[09]
    7228:	46 95       	lsr	r20

0000722a <rxbit1>:
rxbit1:
    in      x2, USBIN   ;[00] [10] <-- sample bit 1/3/5
    722a:	19 b1       	in	r17, 0x09	; 9

0000722c <.Loc.129>:
    andi    x2, USBMASK ;[01]
    722c:	1c 70       	andi	r17, 0x0C	; 12

0000722e <.Loc.130>:
    breq    se0         ;[02]
    722e:	79 f0       	breq	.+30     	; 0x724e <se0>

00007230 <.Loc.131>:
    eor     x1, x2      ;[03]
    7230:	01 27       	eor	r16, r17

00007232 <.Loc.132>:
    subi    x1, 1       ;[04]
    7232:	01 50       	subi	r16, 0x01	; 1

00007234 <.Loc.133>:
    ror     shift       ;[05]
    7234:	27 95       	ror	r18

00007236 <.Loc.134>:
    cpi     shift, 0xfc ;[06]
    7236:	2c 3f       	cpi	r18, 0xFC	; 252

00007238 <.Loc.135>:
    brcc    unstuffOdd  ;[07]
    7238:	98 f6       	brcc	.-90     	; 0x71e0 <unstuffOdd>

0000723a <didUnstuffO>:
didUnstuffO:
    subi    bitcnt, 0xab;[08] == addi 0x55, 0x55 = 0x100/3
    723a:	6b 5a       	subi	r22, 0xAB	; 171

0000723c <.Loc.137>:
    brcs    rxBitLoop   ;[09]
    723c:	60 f3       	brcs	.-40     	; 0x7216 <rxBitLoop>

0000723e <.Loc.138>:

    subi    cnt, 1      ;[10]
    723e:	31 50       	subi	r19, 0x01	; 1

00007240 <.Loc.139>:
    in      x1, USBIN   ;[00] [11] <-- sample bit 6
    7240:	09 b1       	in	r16, 0x09	; 9

00007242 <.Loc.140>:
    brcc    rxByteLoop  ;[01]
    7242:	b0 f6       	brcc	.-84     	; 0x71f0 <rxByteLoop>

00007244 <.Loc.141>:
    rjmp    overflow
    7244:	00 c0       	rjmp	.+0      	; 0x7246 <overflow>

00007246 <overflow>:
*/

#define token   x1

overflow:
    ldi     x2, 1<<USB_INTR_PENDING_BIT
    7246:	11 e0       	ldi	r17, 0x01	; 1

00007248 <.Loc.143>:
    USB_STORE_PENDING(x2)       ; clear any pending interrupts
    7248:	1c bb       	out	0x1c, r17	; 28

0000724a <ignorePacket>:
ignorePacket:
    clr     token
    724a:	00 27       	eor	r16, r16

0000724c <.Loc.145>:
    rjmp    storeTokenAndReturn
    724c:	17 c0       	rjmp	.+46     	; 0x727c <handleSetupOrOut>

0000724e <se0>:
; Processing of received packet (numbers in brackets are cycles after center of SE0)
;----------------------------------------------------------------------------
;This is the only non-error exit point for the software receiver loop
;we don't check any CRCs here because there is no time left.
se0:
    subi    cnt, USB_BUFSIZE    ;[5]
    724e:	3b 50       	subi	r19, 0x0B	; 11

00007250 <.Loc.147>:
    neg     cnt                 ;[6]
    7250:	31 95       	neg	r19

00007252 <.Loc.148>:
    sub     YL, cnt             ;[7]
    7252:	c3 1b       	sub	r28, r19

00007254 <.Loc.149>:
    sbci    YH, 0               ;[8]
    7254:	d0 40       	sbci	r29, 0x00	; 0

00007256 <.Loc.150>:
    ldi     x2, 1<<USB_INTR_PENDING_BIT ;[9]
    7256:	11 e0       	ldi	r17, 0x01	; 1

00007258 <.Loc.151>:
    USB_STORE_PENDING(x2)       ;[10] clear pending intr and check flag later. SE0 should be over.
    7258:	1c bb       	out	0x1c, r17	; 28

0000725a <.Loc.152>:
    ld      token, y            ;[11]
    725a:	08 81       	ld	r16, Y

0000725c <.Loc.153>:
    cpi     token, USBPID_DATA0 ;[13]
    725c:	03 3c       	cpi	r16, 0xC3	; 195

0000725e <.Loc.154>:
    breq    handleData          ;[14]
    725e:	f9 f0       	breq	.+62     	; 0x729e <handleData>

00007260 <.Loc.155>:
    cpi     token, USBPID_DATA1 ;[15]
    7260:	0b 34       	cpi	r16, 0x4B	; 75

00007262 <.Loc.156>:
    breq    handleData          ;[16]
    7262:	e9 f0       	breq	.+58     	; 0x729e <handleData>

00007264 <.Loc.157>:
    lds     shift, usbDeviceAddr;[17]
    7264:	20 91 18 01 	lds	r18, 0x0118	; 0x800118 <usbDeviceAddr>

00007268 <.Loc.158>:
    ldd     x2, y+1             ;[19] ADDR and 1 bit endpoint number
    7268:	19 81       	ldd	r17, Y+1	; 0x01

0000726a <.Loc.159>:
    lsl     x2                  ;[21] shift out 1 bit endpoint number
    726a:	11 0f       	add	r17, r17

0000726c <.Loc.160>:
    cpse    x2, shift           ;[22]
    726c:	12 13       	cpse	r17, r18

0000726e <.Loc.161>:
    rjmp    ignorePacket        ;[23]
    726e:	ed cf       	rjmp	.-38     	; 0x724a <ignorePacket>

00007270 <.Loc.162>:
/* only compute endpoint number in x3 if required later */
#if USB_CFG_HAVE_INTRIN_ENDPOINT || USB_CFG_IMPLEMENT_FN_WRITEOUT
    ldd     x3, y+2             ;[24] endpoint number + crc
    rol     x3                  ;[26] shift in LSB of endpoint
#endif
    cpi     token, USBPID_IN    ;[27]
    7270:	09 36       	cpi	r16, 0x69	; 105

00007272 <.Loc.163>:
    breq    handleIn            ;[28]
    7272:	51 f1       	breq	.+84     	; 0x72c8 <handleIn>

00007274 <.Loc.164>:
    cpi     token, USBPID_SETUP ;[29]
    7274:	0d 32       	cpi	r16, 0x2D	; 45

00007276 <.Loc.165>:
    breq    handleSetupOrOut    ;[30]
    7276:	11 f0       	breq	.+4      	; 0x727c <handleSetupOrOut>

00007278 <.Loc.166>:
    cpi     token, USBPID_OUT   ;[31]
    7278:	01 3e       	cpi	r16, 0xE1	; 225

0000727a <.Loc.167>:
    brne    ignorePacket        ;[32] must be ack, nak or whatever
    727a:	39 f7       	brne	.-50     	; 0x724a <ignorePacket>

0000727c <handleSetupOrOut>:
    andi    x3, 0xf             ;[32]
    breq    storeTokenAndReturn ;[33]
    mov     token, x3           ;[34] indicate that this is endpoint x OUT
#endif
storeTokenAndReturn:
    sts     usbCurrentTok, token;[35]
    727c:	00 93 14 01 	sts	0x0114, r16	; 0x800114 <usbCurrentTok>

00007280 <doReturn>:
doReturn:
    POP_STANDARD                ;[37] 12...16 cycles
    7280:	3f 91       	pop	r19
    7282:	5f 91       	pop	r21
    7284:	4f 91       	pop	r20
    7286:	1f 91       	pop	r17
    7288:	0f 91       	pop	r16
    728a:	2f 91       	pop	r18
    728c:	6f 91       	pop	r22

0000728e <.Loc.170>:
    USB_LOAD_PENDING(YL)        ;[49]
    728e:	cc b3       	in	r28, 0x1c	; 28

00007290 <.Loc.171>:
    sbrc    YL, USB_INTR_PENDING_BIT;[50] check whether data is already arriving
    7290:	c0 fd       	sbrc	r28, 0

00007292 <.Loc.172>:
    rjmp    waitForJ            ;[51] save the pops and pushes -- a new interrupt is already pending
    7292:	67 cf       	rjmp	.-306    	; 0x7162 <waitForJ>

00007294 <sofError>:
sofError:
    POP_RETI                    ;macro call
    7294:	df 91       	pop	r29
    7296:	cf 91       	pop	r28
    7298:	cf bf       	out	0x3f, r28	; 63
    729a:	cf 91       	pop	r28

0000729c <.Loc.174>:
    reti
    729c:	18 95       	reti

0000729e <handleData>:

handleData:
#if USB_CFG_CHECK_CRC
    CRC_CLEANUP_AND_CHECK       ; jumps to ignorePacket if CRC error
#endif
    lds     shift, usbCurrentTok;[18]
    729e:	20 91 14 01 	lds	r18, 0x0114	; 0x800114 <usbCurrentTok>

000072a2 <.Loc.176>:
    tst     shift               ;[20]
    72a2:	22 23       	and	r18, r18

000072a4 <.Loc.177>:
    breq    doReturn            ;[21]
    72a4:	69 f3       	breq	.-38     	; 0x7280 <doReturn>

000072a6 <.Loc.178>:
    lds     x2, usbRxLen        ;[22]
    72a6:	10 91 15 01 	lds	r17, 0x0115	; 0x800115 <usbRxLen>

000072aa <.Loc.179>:
    tst     x2                  ;[24]
    72aa:	11 23       	and	r17, r17

000072ac <.Loc.180>:
    brne    sendNakAndReti      ;[25]
    72ac:	39 f5       	brne	.+78     	; 0x72fc <sendNakAndReti>

000072ae <.Loc.181>:
; 2006-03-11: The following two lines fix a problem where the device was not
; recognized if usbPoll() was called less frequently than once every 4 ms.
    cpi     cnt, 4              ;[26] zero sized data packets are status phase only -- ignore and ack
    72ae:	34 30       	cpi	r19, 0x04	; 4

000072b0 <.Loc.182>:
    brmi    sendAckAndReti      ;[27] keep rx buffer clean -- we must not NAK next SETUP
    72b0:	3a f1       	brmi	.+78     	; 0x7300 <sendAckAndReti>

000072b2 <.Loc.183>:
#if USB_CFG_CHECK_DATA_TOGGLING
    sts     usbCurrentDataToken, token  ; store for checking by C code
#endif
    sts     usbRxLen, cnt       ;[28] store received data, swap buffers
    72b2:	30 93 15 01 	sts	0x0115, r19	; 0x800115 <usbRxLen>

000072b6 <.Loc.184>:
    sts     usbRxToken, shift   ;[30]
    72b6:	20 93 13 01 	sts	0x0113, r18	; 0x800113 <usbRxToken>

000072ba <.Loc.185>:
    lds     x2, usbInputBufOffset;[32] swap buffers
    72ba:	10 91 19 01 	lds	r17, 0x0119	; 0x800119 <usbInputBufOffset>

000072be <.Loc.186>:
    ldi     cnt, USB_BUFSIZE    ;[34]
    72be:	3b e0       	ldi	r19, 0x0B	; 11

000072c0 <.Loc.187>:
    sub     cnt, x2             ;[35]
    72c0:	31 1b       	sub	r19, r17

000072c2 <.Loc.188>:
    sts     usbInputBufOffset, cnt;[36] buffers now swapped
    72c2:	30 93 19 01 	sts	0x0119, r19	; 0x800119 <usbInputBufOffset>

000072c6 <.Loc.189>:
    rjmp    sendAckAndReti      ;[38] 40 + 17 = 57 until SOP
    72c6:	1c c0       	rjmp	.+56     	; 0x7300 <sendAckAndReti>

000072c8 <handleIn>:

handleIn:
;We don't send any data as long as the C code has not processed the current
;input data and potentially updated the output data. That's more efficient
;in terms of code size than clearing the tx buffers when a packet is received.
    lds     x1, usbRxLen        ;[30]
    72c8:	00 91 15 01 	lds	r16, 0x0115	; 0x800115 <usbRxLen>

000072cc <.Loc.191>:
    cpi     x1, 1               ;[32] negative values are flow control, 0 means "buffer free"
    72cc:	01 30       	cpi	r16, 0x01	; 1

000072ce <.Loc.192>:
    brge    sendNakAndReti      ;[33] unprocessed input packet?
    72ce:	b4 f4       	brge	.+44     	; 0x72fc <sendNakAndReti>

000072d0 <.Loc.193>:
    ldi     x1, USBPID_NAK      ;[34] prepare value for usbTxLen
    72d0:	0a e5       	ldi	r16, 0x5A	; 90

000072d2 <.Loc.194>:
    brne    sendNakAndReti      ;[36]
#else
    brne    handleIn1           ;[36]
#endif
#endif
    lds     cnt, usbTxLen       ;[37]
    72d2:	30 91 01 01 	lds	r19, 0x0101	; 0x800101 <usbTxLen>

000072d6 <.Loc.195>:
    sbrc    cnt, 4              ;[39] all handshake tokens have bit 4 set
    72d6:	34 fd       	sbrc	r19, 4

000072d8 <.Loc.196>:
    rjmp    sendCntAndReti      ;[40] 42 + 16 = 58 until SOP
    72d8:	14 c0       	rjmp	.+40     	; 0x7302 <sendCntAndReti>

000072da <.Loc.197>:
    sts     usbTxLen, x1        ;[41] x1 == USBPID_NAK from above
    72da:	00 93 01 01 	sts	0x0101, r16	; 0x800101 <usbTxLen>

000072de <.Loc.198>:
    ldi     YL, lo8(usbTxBuf)   ;[43]
    72de:	c8 e0       	ldi	r28, 0x08	; 8

000072e0 <.Loc.199>:
    ldi     YH, hi8(usbTxBuf)   ;[44]
    72e0:	d1 e0       	ldi	r29, 0x01	; 1

000072e2 <.Loc.200>:
    rjmp    usbSendAndReti      ;[45] 57 + 12 = 59 until SOP
    72e2:	13 c0       	rjmp	.+38     	; 0x730a <usbSendAndReti>

000072e4 <bitstuffN>:
; J = (D+ = 0), (D- = 1)
; K = (D+ = 1), (D- = 0)
; Spec allows 7.5 bit times from EOP to SOP for replies

bitstuffN:
    eor     x1, x4          ;[5]
    72e4:	05 27       	eor	r16, r21

000072e6 <.Loc.202>:
    ldi     x2, 0           ;[6]
    72e6:	10 e0       	ldi	r17, 0x00	; 0

000072e8 <.Loc.203>:
    nop2                    ;[7]
    72e8:	00 c0       	rjmp	.+0      	; 0x72ea <L0^A>

000072ea <L0^A>:
	...

000072ec <.Loc.205>:
    nop                     ;[9]
    out     USBOUT, x1      ;[10] <-- out
    72ec:	0b b9       	out	0x0b, r16	; 11

000072ee <.Loc.206>:
    rjmp    didStuffN       ;[0]
    72ee:	1a c0       	rjmp	.+52     	; 0x7324 <didStuffN>

000072f0 <bitstuff6>:
    
bitstuff6:
    eor     x1, x4          ;[5]
    72f0:	05 27       	eor	r16, r21

000072f2 <.Loc.208>:
    ldi     x2, 0           ;[6] Carry is zero due to brcc
    72f2:	10 e0       	ldi	r17, 0x00	; 0

000072f4 <.Loc.209>:
    rol     shift           ;[7] compensate for ror shift at branch destination
    72f4:	22 1f       	adc	r18, r18

000072f6 <.Loc.210>:
    rjmp    didStuff6       ;[8]
    72f6:	1d c0       	rjmp	.+58     	; 0x7332 <didStuff6>

000072f8 <bitstuff7>:

bitstuff7:
    ldi     x2, 0           ;[2] Carry is zero due to brcc
    72f8:	10 e0       	ldi	r17, 0x00	; 0

000072fa <.Loc.212>:
    rjmp    didStuff7       ;[3]
    72fa:	21 c0       	rjmp	.+66     	; 0x733e <didStuff7>

000072fc <sendNakAndReti>:


sendNakAndReti:
    ldi     x3, USBPID_NAK  ;[-18]
    72fc:	4a e5       	ldi	r20, 0x5A	; 90

000072fe <.Loc.214>:
    rjmp    sendX3AndReti   ;[-17]
    72fe:	02 c0       	rjmp	.+4      	; 0x7304 <sendX3AndReti>

00007300 <sendAckAndReti>:
sendAckAndReti:
    ldi     cnt, USBPID_ACK ;[-17]
    7300:	32 ed       	ldi	r19, 0xD2	; 210

00007302 <sendCntAndReti>:
sendCntAndReti:
    mov     x3, cnt         ;[-16]
    7302:	43 2f       	mov	r20, r19

00007304 <sendX3AndReti>:
sendX3AndReti:
    ldi     YL, 20          ;[-15] x3==r20 address is 20
    7304:	c4 e1       	ldi	r28, 0x14	; 20

00007306 <.Loc.218>:
    ldi     YH, 0           ;[-14]
    7306:	d0 e0       	ldi	r29, 0x00	; 0

00007308 <.Loc.219>:
    ldi     cnt, 2          ;[-13]
    7308:	32 e0       	ldi	r19, 0x02	; 2

0000730a <usbSendAndReti>:
;uses: x1...x4, btcnt, shift, cnt, Y
;Numbers in brackets are time since first bit of sync pattern is sent
;We don't match the transfer rate exactly (don't insert leap cycles every third
;byte) because the spec demands only 1.5% precision anyway.
usbSendAndReti:             ; 12 cycles until SOP
    in      x2, USBDDR      ;[-12]
    730a:	1a b1       	in	r17, 0x0a	; 10

0000730c <.Loc.221>:
    ori     x2, USBMASK     ;[-11]
    730c:	1c 60       	ori	r17, 0x0C	; 12

0000730e <.Loc.222>:
    sbi     USBOUT, USBMINUS;[-10] prepare idle state; D+ and D- must have been 0 (no pullups)
    730e:	5b 9a       	sbi	0x0b, 3	; 11

00007310 <.Loc.223>:
    in      x1, USBOUT      ;[-8] port mirror for tx loop
    7310:	0b b1       	in	r16, 0x0b	; 11

00007312 <.Loc.224>:
    out     USBDDR, x2      ;[-7] <- acquire bus
    7312:	1a b9       	out	0x0a, r17	; 10

00007314 <.Loc.225>:
; need not init x2 (bitstuff history) because sync starts with 0
    ldi     x4, USBMASK     ;[-6] exor mask
    7314:	5c e0       	ldi	r21, 0x0C	; 12

00007316 <.Loc.226>:
    ldi     shift, 0x80     ;[-5] sync byte is first byte sent
    7316:	20 e8       	ldi	r18, 0x80	; 128

00007318 <txByteLoop>:
txByteLoop:
    ldi     bitcnt, 0x35    ;[-4] [6] binary 0011 0101
    7318:	65 e3       	ldi	r22, 0x35	; 53

0000731a <txBitLoop>:
txBitLoop:
    sbrs    shift, 0        ;[-3] [7]
    731a:	20 ff       	sbrs	r18, 0

0000731c <.Loc.229>:
    eor     x1, x4          ;[-2] [8]
    731c:	05 27       	eor	r16, r21

0000731e <.Loc.230>:
    out     USBOUT, x1      ;[-1] [9] <-- out N
    731e:	0b b9       	out	0x0b, r16	; 11

00007320 <.Loc.231>:
    ror     shift           ;[0] [10]
    7320:	27 95       	ror	r18

00007322 <.Loc.232>:
    ror     x2              ;[1]
    7322:	17 95       	ror	r17

00007324 <didStuffN>:
didStuffN:
    cpi     x2, 0xfc        ;[2]
    7324:	1c 3f       	cpi	r17, 0xFC	; 252

00007326 <.Loc.234>:
    brcc    bitstuffN       ;[3]
    7326:	f0 f6       	brcc	.-68     	; 0x72e4 <bitstuffN>

00007328 <.Loc.235>:
    lsr     bitcnt          ;[4]
    7328:	66 95       	lsr	r22

0000732a <.Loc.236>:
    brcc    txBitLoop       ;[5]
    732a:	b8 f7       	brcc	.-18     	; 0x731a <txBitLoop>

0000732c <.Loc.237>:
    brne    txBitLoop       ;[6]
    732c:	b1 f7       	brne	.-20     	; 0x731a <txBitLoop>

0000732e <.Loc.238>:

    sbrs    shift, 0        ;[7]
    732e:	20 ff       	sbrs	r18, 0

00007330 <.Loc.239>:
    eor     x1, x4          ;[8]
    7330:	05 27       	eor	r16, r21

00007332 <didStuff6>:
didStuff6:
    out     USBOUT, x1      ;[-1] [9] <-- out 6
    7332:	0b b9       	out	0x0b, r16	; 11

00007334 <.Loc.241>:
    ror     shift           ;[0] [10]
    7334:	27 95       	ror	r18

00007336 <.Loc.242>:
    ror     x2              ;[1]
    7336:	17 95       	ror	r17

00007338 <.Loc.243>:
    cpi     x2, 0xfc        ;[2]
    7338:	1c 3f       	cpi	r17, 0xFC	; 252

0000733a <.Loc.244>:
    brcc    bitstuff6       ;[3]
    733a:	d0 f6       	brcc	.-76     	; 0x72f0 <bitstuff6>

0000733c <.Loc.245>:
    ror     shift           ;[4]
    733c:	27 95       	ror	r18

0000733e <didStuff7>:
didStuff7:
    ror     x2              ;[5]
    733e:	17 95       	ror	r17

00007340 <.Loc.247>:
    sbrs    x2, 7           ;[6]
    7340:	17 ff       	sbrs	r17, 7

00007342 <.Loc.248>:
    eor     x1, x4          ;[7]
    7342:	05 27       	eor	r16, r21

00007344 <.Loc.249>:
	...

00007346 <.Loc.250>:
    nop                     ;[8]
    cpi     x2, 0xfc        ;[9]
    7346:	1c 3f       	cpi	r17, 0xFC	; 252

00007348 <.Loc.251>:
    out     USBOUT, x1      ;[-1][10] <-- out 7
    7348:	0b b9       	out	0x0b, r16	; 11

0000734a <.Loc.252>:
    brcc    bitstuff7       ;[0] [11]
    734a:	b0 f6       	brcc	.-84     	; 0x72f8 <bitstuff7>

0000734c <.Loc.253>:
    ld      shift, y+       ;[1]
    734c:	29 91       	ld	r18, Y+

0000734e <.Loc.254>:
    dec     cnt             ;[3]
    734e:	3a 95       	dec	r19

00007350 <.Loc.255>:
    brne    txByteLoop      ;[4]
    7350:	19 f7       	brne	.-58     	; 0x7318 <txByteLoop>

00007352 <.Loc.256>:
;make SE0:
    cbr     x1, USBMASK     ;[5] prepare SE0 [spec says EOP may be 21 to 25 cycles]
    7352:	03 7f       	andi	r16, 0xF3	; 243

00007354 <.Loc.257>:
    lds     x2, usbNewDeviceAddr;[6]
    7354:	10 91 17 01 	lds	r17, 0x0117	; 0x800117 <usbNewDeviceAddr>

00007358 <.Loc.258>:
    lsl     x2              ;[8] we compare with left shifted address
    7358:	11 0f       	add	r17, r17

0000735a <.Loc.259>:
    subi    YL, 20 + 2      ;[9] Only assign address on data packets, not ACK/NAK in x3
    735a:	c6 51       	subi	r28, 0x16	; 22

0000735c <.Loc.260>:
    sbci    YH, 0           ;[10]
    735c:	d0 40       	sbci	r29, 0x00	; 0

0000735e <.Loc.261>:
    out     USBOUT, x1      ;[11] <-- out SE0 -- from now 2 bits = 22 cycles until bus idle
    735e:	0b b9       	out	0x0b, r16	; 11

00007360 <.Loc.262>:
;2006-03-06: moved transfer of new address to usbDeviceAddr from C-Code to asm:
;set address only after data packet was sent, not after handshake
    breq    skipAddrAssign  ;[0]
    7360:	11 f0       	breq	.+4      	; 0x7366 <skipAddrAssign>

00007362 <.Loc.263>:
    sts     usbDeviceAddr, x2; if not skipped: SE0 is one cycle longer
    7362:	10 93 18 01 	sts	0x0118, r17	; 0x800118 <usbDeviceAddr>

00007366 <skipAddrAssign>:
skipAddrAssign:
;end of usbDeviceAddress transfer
    ldi     x2, 1<<USB_INTR_PENDING_BIT;[2] int0 occurred during TX -- clear pending flag
    7366:	11 e0       	ldi	r17, 0x01	; 1

00007368 <.Loc.265>:
    USB_STORE_PENDING(x2)   ;[3]
    7368:	1c bb       	out	0x1c, r17	; 28

0000736a <.Loc.266>:
    ori     x1, USBIDLE     ;[4]
    736a:	08 60       	ori	r16, 0x08	; 8

0000736c <.Loc.267>:
    in      x2, USBDDR      ;[5]
    736c:	1a b1       	in	r17, 0x0a	; 10

0000736e <.Loc.268>:
    cbr     x2, USBMASK     ;[6] set both pins to input
    736e:	13 7f       	andi	r17, 0xF3	; 243

00007370 <.Loc.269>:
    mov     x3, x1          ;[7]
    7370:	40 2f       	mov	r20, r16

00007372 <.Loc.270>:
    cbr     x3, USBMASK     ;[8] configure no pullup on both pins
    7372:	43 7f       	andi	r20, 0xF3	; 243

00007374 <.Loc.271>:
    ldi     x4, 4           ;[9]
    7374:	54 e0       	ldi	r21, 0x04	; 4

00007376 <se0Delay>:
se0Delay:
    dec     x4              ;[10] [13] [16] [19]
    7376:	5a 95       	dec	r21

00007378 <.Loc.273>:
    brne    se0Delay        ;[11] [14] [17] [20]
    7378:	f1 f7       	brne	.-4      	; 0x7376 <se0Delay>

0000737a <.Loc.274>:
    out     USBOUT, x1      ;[21] <-- out J (idle) -- end of SE0 (EOP signal)
    737a:	0b b9       	out	0x0b, r16	; 11

0000737c <.Loc.275>:
    out     USBDDR, x2      ;[22] <-- release bus now
    737c:	1a b9       	out	0x0a, r17	; 10

0000737e <.Loc.276>:
    out     USBOUT, x3      ;[23] <-- ensure no pull-up resistors are active
    737e:	4b b9       	out	0x0b, r20	; 11

00007380 <.Loc.277>:
    rjmp    doReturn
    7380:	7f cf       	rjmp	.-258    	; 0x7280 <doReturn>

00007382 <usbFunctionSetup_USBASP_FUNC_TRANSMIT>:
#endif

/* ------------------------------------------------------------------------ */


uchar usbFunctionSetup_USBASP_FUNC_TRANSMIT(usbRequest_t *rq) {
    7382:	fc 01       	movw	r30, r24

00007384 <.LVL1>:
  uchar rval = 0;
  usbWord_t address;
  address.bytes[1] = rq->wValue.bytes[1];
    7384:	43 81       	ldd	r20, Z+3	; 0x03

00007386 <.Loc.10>:
  address.bytes[0] = rq->wIndex.bytes[0];
    7386:	34 81       	ldd	r19, Z+4	; 0x04

00007388 <.Loc.11>:
    7388:	83 81       	ldd	r24, Z+3	; 0x03
    738a:	94 81       	ldd	r25, Z+4	; 0x04

0000738c <.Loc.12>:
    738c:	98 27       	eor	r25, r24
    738e:	89 27       	eor	r24, r25
    7390:	98 27       	eor	r25, r24

00007392 <.Loc.13>:

  if(rq->wValue.bytes[0] == 0x30){        /* read signature */
    7392:	22 81       	ldd	r18, Z+2	; 0x02

00007394 <.Loc.15>:
    7394:	20 33       	cpi	r18, 0x30	; 48
    7396:	39 f4       	brne	.+14     	; 0x73a6 <.L3>

00007398 <.Loc.16>:
    rval = rq->wIndex.bytes[0] & 3;
    7398:	33 70       	andi	r19, 0x03	; 3

0000739a <.Loc.19>:
    rval = signatureBytes[rval];
    739a:	e3 2f       	mov	r30, r19

0000739c <.Loc.20>:
    739c:	f0 e0       	ldi	r31, 0x00	; 0

0000739e <.Loc.21>:
    739e:	ee 5f       	subi	r30, 0xFE	; 254
    73a0:	fe 4f       	sbci	r31, 0xFE	; 254
    73a2:	80 81       	ld	r24, Z

000073a4 <.Loc.22>:
    73a4:	08 95       	ret

000073a6 <.L3>:
defined (__AVR_ATmega1280__) ||													\
defined (__AVR_ATmega1281__) ||													\
defined (__AVR_ATmega1284__) || defined (__AVR_ATmega1284P__)  ||													\
defined (__AVR_ATmega2560__) ||													\
defined (__AVR_ATmega2561__)
  }else if(rq->wValue.bytes[0] == 0x58 && rq->wValue.bytes[1] == 0x00){  /* read lock bits */
    73a6:	28 35       	cpi	r18, 0x58	; 88
    73a8:	61 f4       	brne	.+24     	; 0x73c2 <.L5>

000073aa <.LBB18>:
      rval = boot_lock_fuse_bits_get(GET_LOCK_BITS);
    73aa:	89 e0       	ldi	r24, 0x09	; 9
    73ac:	e1 e0       	ldi	r30, 0x01	; 1
    73ae:	f0 e0       	ldi	r31, 0x00	; 0

000073b0 <.LBE18>:
  }else if(rq->wValue.bytes[0] == 0x58 && rq->wValue.bytes[1] == 0x00){  /* read lock bits */
    73b0:	41 15       	cp	r20, r1
    73b2:	71 f0       	breq	.+28     	; 0x73d0 <.L15>

000073b4 <.LBB19>:
  }else if(rq->wValue.bytes[0] == 0x50 && rq->wValue.bytes[1] == 0x00){  /* read lfuse bits */
      rval = boot_lock_fuse_bits_get(GET_LOW_FUSE_BITS);
  }else if(rq->wValue.bytes[0] == 0x58 && rq->wValue.bytes[1] == 0x08){  /* read hfuse bits */
      rval = boot_lock_fuse_bits_get(GET_HIGH_FUSE_BITS);
    73b4:	89 e0       	ldi	r24, 0x09	; 9
    73b6:	e3 e0       	ldi	r30, 0x03	; 3
    73b8:	f0 e0       	ldi	r31, 0x00	; 0

000073ba <.LBE19>:
  }else if(rq->wValue.bytes[0] == 0x58 && rq->wValue.bytes[1] == 0x08){  /* read hfuse bits */
    73ba:	48 30       	cpi	r20, 0x08	; 8
    73bc:	49 f0       	breq	.+18     	; 0x73d0 <.L15>

000073be <.L9>:
  uchar rval = 0;
    73be:	80 e0       	ldi	r24, 0x00	; 0
    73c0:	08 95       	ret

000073c2 <.L5>:
  }else if(rq->wValue.bytes[0] == 0x50 && rq->wValue.bytes[1] == 0x00){  /* read lfuse bits */
    73c2:	20 35       	cpi	r18, 0x50	; 80
    73c4:	79 f4       	brne	.+30     	; 0x73e4 <.L7>

000073c6 <.Loc.34>:
    73c6:	41 11       	cpse	r20, r1
    73c8:	07 c0       	rjmp	.+14     	; 0x73d8 <.L8>

000073ca <.LBB20>:
      rval = boot_lock_fuse_bits_get(GET_LOW_FUSE_BITS);
    73ca:	89 e0       	ldi	r24, 0x09	; 9
    73cc:	e0 e0       	ldi	r30, 0x00	; 0
    73ce:	f0 e0       	ldi	r31, 0x00	; 0

000073d0 <.L15>:
    73d0:	80 93 57 00 	sts	0x0057, r24	; 0x800057 <__TEXT_REGION_LENGTH__+0x7e0057>
    73d4:	84 91       	lpm	r24, Z

000073d6 <.LBE20>:
    73d6:	08 95       	ret

000073d8 <.L8>:
  }else if(rq->wValue.bytes[0] == 0x50 && rq->wValue.bytes[1] == 0x08){  /* read efuse bits */
    73d8:	48 30       	cpi	r20, 0x08	; 8
    73da:	89 f7       	brne	.-30     	; 0x73be <.L9>

000073dc <.LBB21>:
      rval = boot_lock_fuse_bits_get(GET_EXTENDED_FUSE_BITS );
    73dc:	89 e0       	ldi	r24, 0x09	; 9
    73de:	e2 e0       	ldi	r30, 0x02	; 2
    73e0:	f0 e0       	ldi	r31, 0x00	; 0

000073e2 <.Loc.47>:
    73e2:	f6 cf       	rjmp	.-20     	; 0x73d0 <.L15>

000073e4 <.L7>:
#else
  #warning "HAVE_READ_LOCK_FUSE is activated but MCU unknown -> will not support this feature"
#endif
#endif
#if HAVE_FLASH_BYTE_READACCESS
  }else if(rq->wValue.bytes[0] == 0x20){  /* read FLASH low  byte */
    73e4:	20 32       	cpi	r18, 0x20	; 32
    73e6:	29 f4       	brne	.+10     	; 0x73f2 <.L11>

000073e8 <.LBB22>:
#if ((FLASHEND) > 65535)
      rval = pgm_read_byte_far((((addr_t)address.word)<<1)+0);
#else
      rval = pgm_read_byte((((addr_t)address.word)<<1)+0);
    73e8:	88 0f       	add	r24, r24
    73ea:	99 1f       	adc	r25, r25

000073ec <.Loc.56>:
    73ec:	fc 01       	movw	r30, r24

000073ee <.L16>:
#endif
  }else if(rq->wValue.bytes[0] == 0x28){  /* read FLASH high byte */
#if ((FLASHEND) > 65535)
      rval = pgm_read_byte_far((((addr_t)address.word)<<1)+1);
#else
      rval = pgm_read_byte((((addr_t)address.word)<<1)+1);
    73ee:	84 91       	lpm	r24, Z

000073f0 <.LVL18>:
  }else{
      /* ignore all others, return default value == 0 */
  }
        
  return rval;
}
    73f0:	08 95       	ret

000073f2 <.L11>:
  }else if(rq->wValue.bytes[0] == 0x28){  /* read FLASH high byte */
    73f2:	28 32       	cpi	r18, 0x28	; 40
    73f4:	29 f4       	brne	.+10     	; 0x7400 <.L12>

000073f6 <.LVL20>:
      rval = pgm_read_byte((((addr_t)address.word)<<1)+1);
    73f6:	88 0f       	add	r24, r24
    73f8:	99 1f       	adc	r25, r25

000073fa <.Loc.70>:
    73fa:	fc 01       	movw	r30, r24

000073fc <.Loc.71>:
    73fc:	31 96       	adiw	r30, 0x01	; 1

000073fe <.Loc.72>:
    73fe:	f7 cf       	rjmp	.-18     	; 0x73ee <.L16>

00007400 <.L12>:
  }else if(rq->wValue.bytes[0] == 0xa0){  /* read EEPROM byte */
    7400:	20 3a       	cpi	r18, 0xA0	; 160
    7402:	09 f4       	brne	.+2      	; 0x7406 <.L13>

00007404 <.Loc.76>:
      rval = eeprom_read_byte((void *)address.word);
    7404:	27 c2       	rjmp	.+1102   	; 0x7854 <eeprom_read_byte>

00007406 <.L13>:
  }else if(rq->wValue.bytes[0] == 0xc0){  /* write EEPROM byte */
    7406:	20 3c       	cpi	r18, 0xC0	; 192
    7408:	19 f4       	brne	.+6      	; 0x7410 <.L14>

0000740a <.Loc.80>:
      eeprom_write_byte((void *)address.word, rq->wIndex.bytes[1]);
    740a:	65 81       	ldd	r22, Z+5	; 0x05
    740c:	2b d2       	rcall	.+1110   	; 0x7864 <eeprom_write_byte>

0000740e <.LVL26>:
    740e:	d7 cf       	rjmp	.-82     	; 0x73be <.L9>

00007410 <.L14>:
  }else if(rq->wValue.bytes[0] == (HAVE_BOOTLOADER_HIDDENEXITCOMMAND)){  /* cause a bootLoaderExit at disconnect */
    7410:	2f 3f       	cpi	r18, 0xFF	; 255
    7412:	a9 f6       	brne	.-86     	; 0x73be <.L9>

00007414 <.Loc.84>:
      stayinloader = 0xf1;  /* we need to be connected - so assume it */
    7414:	81 ef       	ldi	r24, 0xF1	; 241
    7416:	80 93 39 01 	sts	0x0139, r24	; 0x800139 <stayinloader>
    741a:	d1 cf       	rjmp	.-94     	; 0x73be <.L9>

0000741c <main>:

static inline void  bootLoaderInit(void)
{
#if (BOOTLOADER_IGNOREPROGBUTTON)
#else
    PIN_DDR(JUMPER_PORT)  = 0;
    741c:	1a b8       	out	0x0a, r1	; 10

0000741e <.Loc.91>:
    PIN_PORT(JUMPER_PORT) = (1<< PIN(JUMPER_PORT, JUMPER_BIT)); /* activate pull-up */
    741e:	80 e1       	ldi	r24, 0x10	; 16
    7420:	8b b9       	out	0x0b, r24	; 11

00007422 <.LBE82>:
    /* initialize  */
    bootLoaderInit();
    odDebugInit();
    DBG1(0x00, 0, 0);
#ifndef NO_FLASH_WRITE
    GICR = (1 << IVCE);  /* enable change of interrupt vectors */
    7422:	81 e0       	ldi	r24, 0x01	; 1
    7424:	85 bf       	out	0x35, r24	; 53

00007426 <.Loc.97>:
    GICR = (1 << IVSEL); /* move interrupts to boot flash section */
    7426:	82 e0       	ldi	r24, 0x02	; 2
    7428:	85 bf       	out	0x35, r24	; 53

0000742a <.LBB84>:
    asm volatile (
    742a:	e0 e0       	ldi	r30, 0x00	; 0
    742c:	f1 e7       	ldi	r31, 0x71	; 113

0000742e <_mywait_sleeploop252>:
    742e:	a8 95       	wdr
    7430:	31 97       	sbiw	r30, 0x01	; 1
    7432:	80 40       	sbci	r24, 0x00	; 0
    7434:	e1 f7       	brne	.-8      	; 0x742e <_mywait_sleeploop252>

00007436 <.LBB86>:
#	if (BOOTLOADER_ALWAYSENTERPROGRAMMODE)
#		define bootLoaderCondition()	(true)
#	else
static inline bool bootLoaderCondition(void)
{
  if (__BOOTLOADERENTRY_FROMSOFTWARE__bootup_MCUCSR & (~(_BV(WDRF)))) {
    7436:	80 91 3b 01 	lds	r24, 0x013B	; 0x80013b <__BOOTLOADERENTRY_FROMSOFTWARE__bootup_MCUCSR>
    743a:	87 7f       	andi	r24, 0xF7	; 247

0000743c <.Loc.107>:
    743c:	81 11       	cpse	r24, r1
    743e:	04 c0       	rjmp	.+8      	; 0x7448 <.L18>

00007440 <.Loc.108>:
  } else {
    if (__BOOTLOADERENTRY_FROMSOFTWARE__bootup_RAMEND_doesmatch == (__BOOTLOADERENTRY_FROMSOFTWARE__EXPECTEDADDRESS & 0xff)) {
    7440:	80 91 3c 01 	lds	r24, 0x013C	; 0x80013c <__BOOTLOADERENTRY_FROMSOFTWARE__bootup_RAMEND_doesmatch>

00007444 <.Loc.110>:
    7444:	81 15       	cp	r24, r1
    7446:	71 f0       	breq	.+28     	; 0x7464 <.L19>

00007448 <.L18>:
#endif
#if (HAVE_BOOTLOADER_ADDITIONALMSDEVICEWAIT>0)
    _mydelay_ms(HAVE_BOOTLOADER_ADDITIONALMSDEVICEWAIT);
#endif
    if(bootLoaderCondition()){
    7448:	4c 9b       	sbis	0x09, 4	; 9
    744a:	0c c0       	rjmp	.+24     	; 0x7464 <.L19>

0000744c <.L76>:
    cli();
    744c:	f8 94       	cli

0000744e <.Loc.117>:
    usbDeviceDisconnect();
    744e:	53 9a       	sbi	0x0a, 3	; 10

00007450 <.LBB90>:
    PIN_PORT(JUMPER_PORT) = 0;		/* undo bootLoaderInit() changes */
    7450:	1b b8       	out	0x0b, r1	; 11

00007452 <.LBE90>:
    USB_INTR_ENABLE = 0;
    7452:	1d ba       	out	0x1d, r1	; 29

00007454 <.Loc.124>:
    USB_INTR_CFG = 0;       /* also reset config bits */
    7454:	10 92 69 00 	sts	0x0069, r1	; 0x800069 <__DATA_REGION_ORIGIN__+0x9>

00007458 <.Loc.126>:
    GICR = (1 << IVCE);     /* enable change of interrupt vectors */
    7458:	81 e0       	ldi	r24, 0x01	; 1
    745a:	85 bf       	out	0x35, r24	; 53

0000745c <.Loc.128>:
    GICR = (0 << IVSEL);    /* move interrupts to application flash section */
    745c:	15 be       	out	0x35, r1	; 53

0000745e <.Loc.130>:
    nullVector();
    745e:	e0 e0       	ldi	r30, 0x00	; 0
    7460:	f0 e0       	ldi	r31, 0x00	; 0
    7462:	09 95       	icall

00007464 <.L19>:
#		if ((defined(CONFIG_HAVE__BOOTLOADER_ABORTTIMEOUTONACT)) && (!(BOOTLOADER_IGNOREPROGBUTTON)) && (BOOTLOADER_LOOPCYCLES_TIMEOUT))
      if (bootLoaderConditionSimple()) {
	stayinloader = stayinloader_initialValue - 0x02;
      } else
#		endif
	      stayinloader = stayinloader_initialValue;
    7464:	8e ef       	ldi	r24, 0xFE	; 254
    7466:	80 93 39 01 	sts	0x0139, r24	; 0x800139 <stayinloader>

0000746a <.Loc.133>:
	__original_WDTCR=WDTCR;
	if (__original_WDTCR & _BV(WDE)) {
	  wdt_enable(WDTO_2S);
	}
#else
	MCUCSR = 0;       /* clear all reset flags for next time */
    746a:	14 be       	out	0x34, r1	; 52

0000746c <.LBB92>:
		);
	}
	else
	{
        uint8_t register temp_reg;
		__asm__ __volatile__ (
    746c:	0f b6       	in	r0, 0x3f	; 63
    746e:	f8 94       	cli
    7470:	a8 95       	wdr
    7472:	80 91 60 00 	lds	r24, 0x0060	; 0x800060 <__DATA_REGION_ORIGIN__>
    7476:	88 61       	ori	r24, 0x18	; 24
    7478:	80 93 60 00 	sts	0x0060, r24	; 0x800060 <__DATA_REGION_ORIGIN__>
    747c:	10 92 60 00 	sts	0x0060, r1	; 0x800060 <__DATA_REGION_ORIGIN__>
    7480:	0f be       	out	0x3f, r0	; 63

00007482 <.LBB94>:
/* ------------------------------------------------------------------------- */

USB_PUBLIC void usbInit(void)
{
#if USB_INTR_CFG_SET != 0
    USB_INTR_CFG |= USB_INTR_CFG_SET;
    7482:	80 91 69 00 	lds	r24, 0x0069	; 0x800069 <__DATA_REGION_ORIGIN__+0x9>

00007486 <.Loc.145>:
    7486:	82 60       	ori	r24, 0x02	; 2
    7488:	80 93 69 00 	sts	0x0069, r24	; 0x800069 <__DATA_REGION_ORIGIN__+0x9>

0000748c <.Loc.146>:
#endif
#if USB_INTR_CFG_CLR != 0
    USB_INTR_CFG &= ~(USB_INTR_CFG_CLR);
#endif
    USB_INTR_ENABLE |= (1 << USB_INTR_ENABLE_BIT);
    748c:	e8 9a       	sbi	0x1d, 0	; 29

0000748e <.LBE96>:
    usbDeviceDisconnect();  /* do this while interrupts are disabled */
    748e:	53 9a       	sbi	0x0a, 3	; 10

00007490 <.LBB98>:
    asm volatile (
    7490:	8c e0       	ldi	r24, 0x0C	; 12
    7492:	e0 e0       	ldi	r30, 0x00	; 0
    7494:	f5 e3       	ldi	r31, 0x35	; 53

00007496 <_mywait_sleeploop365>:
    7496:	a8 95       	wdr
    7498:	31 97       	sbiw	r30, 0x01	; 1
    749a:	80 40       	sbci	r24, 0x00	; 0
    749c:	e1 f7       	brne	.-8      	; 0x7496 <_mywait_sleeploop365>

0000749e <.LBE98>:
    usbDeviceConnect();
    749e:	53 98       	cbi	0x0a, 3	; 10

000074a0 <.Loc.155>:
    sei();
    74a0:	78 94       	sei

000074a2 <.L75>:
    len = usbRxLen - 3;
    74a2:	10 91 15 01 	lds	r17, 0x0115	; 0x800115 <usbRxLen>
    74a6:	13 50       	subi	r17, 0x03	; 3

000074a8 <.LVL33>:
    if(len >= 0){
    74a8:	17 fd       	sbrc	r17, 7
    74aa:	5a c0       	rjmp	.+180    	; 0x7560 <.L20>

000074ac <.Loc.165>:
        usbProcessRx(usbRxBuf + USB_BUFSIZE + 1 - usbInputBufOffset, len);
    74ac:	80 91 19 01 	lds	r24, 0x0119	; 0x800119 <usbInputBufOffset>
    74b0:	cc e0       	ldi	r28, 0x0C	; 12
    74b2:	d0 e0       	ldi	r29, 0x00	; 0
    74b4:	c8 1b       	sub	r28, r24
    74b6:	d1 09       	sbc	r29, r1

000074b8 <.Loc.167>:
    74b8:	c6 5e       	subi	r28, 0xE6	; 230
    74ba:	de 4f       	sbci	r29, 0xFE	; 254

000074bc <.LBB102>:
    if(usbRxToken == (uchar)USBPID_SETUP){
    74bc:	80 91 13 01 	lds	r24, 0x0113	; 0x800113 <usbRxToken>
    74c0:	8d 32       	cpi	r24, 0x2D	; 45
    74c2:	09 f0       	breq	.+2      	; 0x74c6 <.LBB104>

000074c4 <L0^A>:
    74c4:	0d c1       	rjmp	.+538    	; 0x76e0 <.L21>

000074c6 <.LBB104>:
        if(len != 8)    /* Setup size must be always 8 bytes. Ignore otherwise. */
    74c6:	18 30       	cpi	r17, 0x08	; 8
    74c8:	09 f0       	breq	.+2      	; 0x74cc <.Loc.175>

000074ca <L0^A>:
    74ca:	48 c0       	rjmp	.+144    	; 0x755c <.L23>

000074cc <.Loc.175>:
        usbTxBuf[0] = USBPID_DATA0;         /* initialize data toggling */
    74cc:	83 ec       	ldi	r24, 0xC3	; 195
    74ce:	80 93 08 01 	sts	0x0108, r24	; 0x800108 <usbTxBuf>

000074d2 <.Loc.178>:
        usbTxLen = USBPID_NAK;              /* abort pending transmit */
    74d2:	8a e5       	ldi	r24, 0x5A	; 90
    74d4:	80 93 01 01 	sts	0x0101, r24	; 0x800101 <usbTxLen>

000074d8 <.Loc.180>:
        usbMsgFlags = 0;
    74d8:	10 92 3a 01 	sts	0x013A, r1	; 0x80013a <usbMsgFlags>

000074dc <.Loc.182>:
        uchar type = rq->bmRequestType & USBRQ_TYPE_MASK;
    74dc:	38 81       	ld	r19, Y

000074de <.Loc.184>:
    74de:	83 2f       	mov	r24, r19
    74e0:	80 76       	andi	r24, 0x60	; 96

000074e2 <.LBB105>:
    if(rq->bRequest == USBASP_FUNC_TRANSMIT){   /* emulate parts of ISP protocol */
    74e2:	99 81       	ldd	r25, Y+1	; 0x01

000074e4 <.Loc.187>:
        if(type != USBRQ_TYPE_STANDARD){    /* standard requests are handled by driver */
    74e4:	81 15       	cp	r24, r1
    74e6:	09 f4       	brne	.+2      	; 0x74ea <.LBI105>

000074e8 <L0^A>:
    74e8:	9d c0       	rjmp	.+314    	; 0x7624 <.L24>

000074ea <.LBI105>:
    usbMsgPtr = (usbMsgPtr_t)replyBuffer;
    74ea:	40 e3       	ldi	r20, 0x30	; 48
    74ec:	51 e0       	ldi	r21, 0x01	; 1
    74ee:	50 93 07 01 	sts	0x0107, r21	; 0x800107 <usbMsgPtr+0x1>
    74f2:	40 93 06 01 	sts	0x0106, r20	; 0x800106 <usbMsgPtr>

000074f6 <.Loc.195>:
    if(rq->bRequest == USBASP_FUNC_TRANSMIT){   /* emulate parts of ISP protocol */
    74f6:	93 30       	cpi	r25, 0x03	; 3
    74f8:	69 f4       	brne	.+26     	; 0x7514 <.L25>

000074fa <.Loc.197>:
        replyBuffer[3] = usbFunctionSetup_USBASP_FUNC_TRANSMIT(rq);
    74fa:	ce 01       	movw	r24, r28

000074fc <.Loc.199>:
    74fc:	42 df       	rcall	.-380    	; 0x7382 <usbFunctionSetup_USBASP_FUNC_TRANSMIT>

000074fe <.LVL38>:
    74fe:	80 93 33 01 	sts	0x0133, r24	; 0x800133 <replyBuffer.0+0x3>

00007502 <.LVL39>:
        len = (usbMsgLen_t)4;
    7502:	84 e0       	ldi	r24, 0x04	; 4

00007504 <.L26>:
            if(!rq->wLength.bytes[1] && replyLen > rq->wLength.bytes[0])    /* limit length to max */
    7504:	9f 81       	ldd	r25, Y+7	; 0x07
    7506:	91 11       	cpse	r25, r1
    7508:	27 c0       	rjmp	.+78     	; 0x7558 <.L44>

0000750a <.Loc.209>:
    750a:	9e 81       	ldd	r25, Y+6	; 0x06
    750c:	98 17       	cp	r25, r24
    750e:	20 f5       	brcc	.+72     	; 0x7558 <.L44>
    7510:	89 2f       	mov	r24, r25
    7512:	22 c0       	rjmp	.+68     	; 0x7558 <.L44>

00007514 <.L25>:
    }else if((rq->bRequest == USBASP_FUNC_ENABLEPROG) || (rq->bRequest == USBASP_FUNC_SETISPSCK)){
    7514:	95 30       	cpi	r25, 0x05	; 5
    7516:	09 f4       	brne	.+2      	; 0x751a <.Loc.212>

00007518 <L0^A>:
    7518:	e1 c0       	rjmp	.+450    	; 0x76dc <.L78>

0000751a <.Loc.212>:
    751a:	9a 30       	cpi	r25, 0x0A	; 10
    751c:	09 f4       	brne	.+2      	; 0x7520 <.Loc.213>

0000751e <L0^A>:
    751e:	de c0       	rjmp	.+444    	; 0x76dc <.L78>

00007520 <.Loc.213>:
    }else if(rq->bRequest >= USBASP_FUNC_READFLASH && rq->bRequest <= USBASP_FUNC_SETLONGADDRESS){
    7520:	8c ef       	ldi	r24, 0xFC	; 252

00007522 <.Loc.215>:
    7522:	89 0f       	add	r24, r25

00007524 <.Loc.216>:
    7524:	86 30       	cpi	r24, 0x06	; 6
    7526:	08 f0       	brcs	.+2      	; 0x752a <.Loc.217>

00007528 <L0^A>:
    7528:	72 c0       	rjmp	.+228    	; 0x760e <.L27>

0000752a <.Loc.217>:
        currentAddress.w[0] = rq->wValue.word;
    752a:	4a 81       	ldd	r20, Y+2	; 0x02
    752c:	5b 81       	ldd	r21, Y+3	; 0x03
    752e:	50 93 38 01 	sts	0x0138, r21	; 0x800138 <currentAddress+0x1>
    7532:	40 93 37 01 	sts	0x0137, r20	; 0x800137 <currentAddress>

00007536 <.Loc.219>:
        if(rq->bRequest == USBASP_FUNC_SETLONGADDRESS){
    7536:	99 30       	cpi	r25, 0x09	; 9
    7538:	09 f4       	brne	.+2      	; 0x753c <.Loc.221>

0000753a <L0^A>:
    753a:	70 c0       	rjmp	.+224    	; 0x761c <.L28>

0000753c <.Loc.221>:
            bytesRemaining = rq->wLength.bytes[0];
    753c:	8e 81       	ldd	r24, Y+6	; 0x06

0000753e <.Loc.223>:
    753e:	80 93 36 01 	sts	0x0136, r24	; 0x800136 <bytesRemaining>

00007542 <.Loc.224>:
            isLastPage = rq->wIndex.bytes[1] & 0x02;
    7542:	2d 81       	ldd	r18, Y+5	; 0x05
    7544:	22 70       	andi	r18, 0x02	; 2

00007546 <.Loc.226>:
    7546:	20 93 35 01 	sts	0x0135, r18	; 0x800135 <isLastPage>

0000754a <.Loc.227>:
            currentRequest = rq->bRequest;
    754a:	90 93 34 01 	sts	0x0134, r25	; 0x800134 <currentRequest>

0000754e <.Loc.229>:
            if((rq->bmRequestType & USBRQ_DIR_MASK) != USBRQ_DIR_HOST_TO_DEVICE){
    754e:	37 ff       	sbrs	r19, 7
    7550:	8f ef       	ldi	r24, 0xFF	; 255

00007552 <.Loc.234>:
            usbMsgFlags = USB_FLG_USE_USER_RW;
    7552:	90 e8       	ldi	r25, 0x80	; 128
    7554:	90 93 3a 01 	sts	0x013A, r25	; 0x80013a <usbMsgFlags>

00007558 <.L44>:
        usbMsgLen = replyLen;
    7558:	80 93 00 01 	sts	0x0100, r24	; 0x800100 <usbMsgLen>

0000755c <.L23>:
        usbRxLen = 0;       /* mark rx buffer as available */
    755c:	10 92 15 01 	sts	0x0115, r1	; 0x800115 <usbRxLen>

00007560 <.L20>:
    if(usbTxLen & 0x10){    /* transmit system idle */
    7560:	80 91 01 01 	lds	r24, 0x0101	; 0x800101 <usbTxLen>

00007564 <.Loc.243>:
    7564:	84 ff       	sbrs	r24, 4
    7566:	37 c0       	rjmp	.+110    	; 0x75d6 <.L58>

00007568 <.Loc.244>:
        if(usbMsgLen != USB_NO_MSG){    /* transmit data pending? */
    7568:	c0 91 00 01 	lds	r28, 0x0100	; 0x800100 <usbMsgLen>

0000756c <.Loc.246>:
    756c:	cf 3f       	cpi	r28, 0xFF	; 255
    756e:	99 f1       	breq	.+102    	; 0x75d6 <.L58>

00007570 <.LBB148>:
    if(wantLen > 8)
    7570:	8c 2f       	mov	r24, r28
    7572:	c9 30       	cpi	r28, 0x09	; 9
    7574:	08 f0       	brcs	.+2      	; 0x7578 <.L59>
    7576:	88 e0       	ldi	r24, 0x08	; 8

00007578 <.L59>:
    usbMsgLen -= wantLen;
    7578:	9c 2f       	mov	r25, r28
    757a:	98 1b       	sub	r25, r24
    757c:	90 93 00 01 	sts	0x0100, r25	; 0x800100 <usbMsgLen>

00007580 <.Loc.256>:
    usbTxBuf[0] ^= USBPID_DATA0 ^ USBPID_DATA1; /* DATA toggling */
    7580:	90 91 08 01 	lds	r25, 0x0108	; 0x800108 <usbTxBuf>
    7584:	28 e8       	ldi	r18, 0x88	; 136
    7586:	92 27       	eor	r25, r18
    7588:	90 93 08 01 	sts	0x0108, r25	; 0x800108 <usbTxBuf>

0000758c <.LBB150>:
    if(len > 0){    /* don't bother app with 0 sized reads */
    758c:	c1 15       	cp	r28, r1
    758e:	b1 f0       	breq	.+44     	; 0x75bc <.L60>

00007590 <.Loc.262>:
        if(usbMsgFlags & USB_FLG_USE_USER_RW){
    7590:	30 91 3a 01 	lds	r19, 0x013A	; 0x80013a <usbMsgFlags>

00007594 <.Loc.264>:
    7594:	37 ff       	sbrs	r19, 7
    7596:	2f c1       	rjmp	.+606    	; 0x77f6 <.L61>

00007598 <.LBB152>:
    if(len > bytesRemaining)
    7598:	90 91 36 01 	lds	r25, 0x0136	; 0x800136 <bytesRemaining>

0000759c <.Loc.270>:
    759c:	c8 2f       	mov	r28, r24
    759e:	98 17       	cp	r25, r24
    75a0:	08 f4       	brcc	.+2      	; 0x75a4 <.L62>
    75a2:	c9 2f       	mov	r28, r25

000075a4 <.L62>:
    bytesRemaining -= len;
    75a4:	9c 1b       	sub	r25, r28
    75a6:	90 93 36 01 	sts	0x0136, r25	; 0x800136 <bytesRemaining>

000075aa <.LVL53>:
        if(currentRequest >= USBASP_FUNC_READEEPROM){
    75aa:	d0 90 34 01 	lds	r13, 0x0134	; 0x800134 <currentRequest>

000075ae <.Loc.275>:
    for(i = 0; i < len; i++){
    75ae:	d0 e0       	ldi	r29, 0x00	; 0

000075b0 <.Loc.276>:
    75b0:	89 e0       	ldi	r24, 0x09	; 9
    75b2:	e8 2e       	mov	r14, r24
    75b4:	81 e0       	ldi	r24, 0x01	; 1
    75b6:	f8 2e       	mov	r15, r24

000075b8 <.L63>:
    75b8:	cd 13       	cpse	r28, r29
    75ba:	06 c1       	rjmp	.+524    	; 0x77c8 <.L66>

000075bc <.L60>:
        usbCrc16Append(&usbTxBuf[1], len);
    75bc:	6c 2f       	mov	r22, r28
    75be:	89 e0       	ldi	r24, 0x09	; 9
    75c0:	91 e0       	ldi	r25, 0x01	; 1
    75c2:	c7 dd       	rcall	.-1138   	; 0x7152 <usbCrc16Append>

000075c4 <.LVL56>:
        len += 4;           /* length including sync byte */
    75c4:	84 e0       	ldi	r24, 0x04	; 4
    75c6:	8c 0f       	add	r24, r28

000075c8 <.LVL57>:
        if(len < 12)        /* a partial package identifies end of message */
    75c8:	c8 30       	cpi	r28, 0x08	; 8
    75ca:	19 f0       	breq	.+6      	; 0x75d2 <.L70>

000075cc <.Loc.284>:
            usbMsgLen = USB_NO_MSG;
    75cc:	9f ef       	ldi	r25, 0xFF	; 255
    75ce:	90 93 00 01 	sts	0x0100, r25	; 0x800100 <usbMsgLen>

000075d2 <.L70>:
    usbTxLen = len;
    75d2:	80 93 01 01 	sts	0x0101, r24	; 0x800101 <usbTxLen>

000075d6 <.L58>:
            usbMsgPtr = r;
    75d6:	84 e1       	ldi	r24, 0x14	; 20

000075d8 <.L72>:
        uchar usbLineStatus = USBIN & USBMASK;
    75d8:	99 b1       	in	r25, 0x09	; 9

000075da <.LVL60>:
    75da:	9c 70       	andi	r25, 0x0C	; 12

000075dc <.Loc.298>:
        if(usbLineStatus != 0)  /* SE0 has ended */
    75dc:	91 11       	cpse	r25, r1
    75de:	06 c0       	rjmp	.+12     	; 0x75ec <.L71>

000075e0 <.LBE171>:
    for(i = 20; i > 0; i--){
    75e0:	8a 95       	dec	r24

000075e2 <.Loc.301>:
    75e2:	d1 f7       	brne	.-12     	; 0x75d8 <.L72>

000075e4 <.Loc.302>:
    usbNewDeviceAddr = 0;
    75e4:	10 92 17 01 	sts	0x0117, r1	; 0x800117 <usbNewDeviceAddr>

000075e8 <.Loc.304>:
    usbDeviceAddr = 0;
    75e8:	10 92 18 01 	sts	0x0118, r1	; 0x800118 <usbDeviceAddr>

000075ec <.L71>:
  : [sil]        "+d" (stayinloader)
  : [pin]         "I" (_SFR_IO_ADDR(PIN_PIN(JUMPER_PORT))),
    [bit]         "I" (PIN(JUMPER_PORT, JUMPER_BIT))
);
#else
	if (stayinloader >= 0x10) {
    75ec:	80 91 39 01 	lds	r24, 0x0139	; 0x800139 <stayinloader>

000075f0 <.Loc.315>:
    75f0:	80 31       	cpi	r24, 0x10	; 16
    75f2:	08 f4       	brcc	.+2      	; 0x75f6 <.Loc.316>

000075f4 <L0^A>:
    75f4:	24 c1       	rjmp	.+584    	; 0x783e <.L73>

000075f6 <.Loc.316>:
	  if (!bootLoaderConditionSimple()) {
    75f6:	4c 9b       	sbis	0x09, 4	; 9
    75f8:	05 c0       	rjmp	.+10     	; 0x7604 <.L74>

000075fa <.Loc.318>:
	    stayinloader-=0x10;
    75fa:	80 91 39 01 	lds	r24, 0x0139	; 0x800139 <stayinloader>
    75fe:	80 51       	subi	r24, 0x10	; 16

00007600 <.L115>:
	  } 
	} else {
	  if (bootLoaderConditionSimple()) {
	    if (stayinloader > 1) stayinloader-=2;
    7600:	80 93 39 01 	sts	0x0139, r24	; 0x800139 <stayinloader>

00007604 <.L74>:
#endif
#endif
#endif

#if BOOTLOADER_CAN_EXIT
        }while (stayinloader);	/* main event loop, if BOOTLOADER_CAN_EXIT*/
    7604:	80 91 39 01 	lds	r24, 0x0139	; 0x800139 <stayinloader>
    7608:	81 11       	cpse	r24, r1
    760a:	4b cf       	rjmp	.-362    	; 0x74a2 <.L75>
    760c:	1f cf       	rjmp	.-450    	; 0x744c <.L76>

0000760e <.L27>:
      stayinloader	   &= (0xfe);
    760e:	80 91 39 01 	lds	r24, 0x0139	; 0x800139 <stayinloader>

00007612 <.Loc.324>:
    }else if(rq->bRequest == USBASP_FUNC_DISCONNECT){
    7612:	92 30       	cpi	r25, 0x02	; 2
    7614:	29 f4       	brne	.+10     	; 0x7620 <.L30>

00007616 <.Loc.325>:
      stayinloader	   &= (0xfe);
    7616:	8e 7f       	andi	r24, 0xFE	; 254

00007618 <.L114>:
	stayinloader	   |= (0x01);
    7618:	80 93 39 01 	sts	0x0139, r24	; 0x800139 <stayinloader>

0000761c <.L28>:
usbMsgLen_t     len = 0;
    761c:	80 e0       	ldi	r24, 0x00	; 0
    761e:	72 cf       	rjmp	.-284    	; 0x7504 <.L26>

00007620 <.L30>:
	stayinloader	   |= (0x01);
    7620:	81 60       	ori	r24, 0x01	; 1
    7622:	fa cf       	rjmp	.-12     	; 0x7618 <.L114>

00007624 <.L24>:
uchar   value = rq->wValue.bytes[0];
    7624:	2a 81       	ldd	r18, Y+2	; 0x02

00007626 <.LVL69>:
    dataPtr[0] = 0; /* default reply common to USBRQ_GET_STATUS and USBRQ_GET_INTERFACE */
    7626:	10 92 11 01 	sts	0x0111, r1	; 0x800111 <usbTxBuf+0x9>

0000762a <.LBB120>:
    SWITCH_CASE(USBRQ_GET_STATUS)           /* 0 */
    762a:	91 11       	cpse	r25, r1
    762c:	0a c0       	rjmp	.+20     	; 0x7642 <.L31>

0000762e <.LBB121>:
        dataPtr[1] = 0;
    762e:	10 92 12 01 	sts	0x0112, r1	; 0x800112 <usbTxBuf+0xa>

00007632 <.Loc.349>:
uchar   *dataPtr = usbTxBuf + 9;    /* there are 2 bytes free space at the end of the buffer */
    7632:	21 e1       	ldi	r18, 0x11	; 17
    7634:	31 e0       	ldi	r19, 0x01	; 1

00007636 <.LVL73>:
        len = 2;
    7636:	82 e0       	ldi	r24, 0x02	; 2

00007638 <.L32>:
    usbMsgPtr = (usbMsgPtr_t)dataPtr;
    7638:	30 93 07 01 	sts	0x0107, r19	; 0x800107 <usbMsgPtr+0x1>
    763c:	20 93 06 01 	sts	0x0106, r18	; 0x800106 <usbMsgPtr>

00007640 <.Loc.357>:
        if(replyLen == USB_NO_MSG){         /* use user-supplied read/write function */
    7640:	61 cf       	rjmp	.-318    	; 0x7504 <.L26>

00007642 <.L31>:
    SWITCH_CASE(USBRQ_SET_ADDRESS)          /* 5 */
    7642:	95 30       	cpi	r25, 0x05	; 5
    7644:	29 f4       	brne	.+10     	; 0x7650 <.L33>

00007646 <.Loc.360>:
        usbNewDeviceAddr = value;
    7646:	20 93 17 01 	sts	0x0117, r18	; 0x800117 <usbNewDeviceAddr>

0000764a <.L43>:
uchar   *dataPtr = usbTxBuf + 9;    /* there are 2 bytes free space at the end of the buffer */
    764a:	21 e1       	ldi	r18, 0x11	; 17
    764c:	31 e0       	ldi	r19, 0x01	; 1

0000764e <.Loc.365>:
    764e:	f4 cf       	rjmp	.-24     	; 0x7638 <.L32>

00007650 <.L33>:
    SWITCH_CASE(USBRQ_GET_DESCRIPTOR)       /* 6 */
    7650:	96 30       	cpi	r25, 0x06	; 6
    7652:	99 f5       	brne	.+102    	; 0x76ba <.L35>

00007654 <.Loc.367>:
        len = usbDriverDescriptor(rq);
    7654:	9b 81       	ldd	r25, Y+3	; 0x03

00007656 <.LBB123>:
    SWITCH_CASE(USBDESCR_DEVICE)    /* 1 */
    7656:	91 30       	cpi	r25, 0x01	; 1
    7658:	59 f4       	brne	.+22     	; 0x7670 <.L36>

0000765a <.Loc.374>:
        GET_DESCRIPTOR(USB_CFG_DESCR_PROPS_DEVICE, usbDescriptorDevice)
    765a:	88 e9       	ldi	r24, 0x98	; 152
    765c:	90 e7       	ldi	r25, 0x70	; 112

0000765e <.L37>:
        GET_DESCRIPTOR(USB_CFG_DESCR_PROPS_CONFIGURATION, usbDescriptorConfiguration)
    765e:	90 93 07 01 	sts	0x0107, r25	; 0x800107 <usbMsgPtr+0x1>
    7662:	80 93 06 01 	sts	0x0106, r24	; 0x800106 <usbMsgPtr>

00007666 <.Loc.380>:
        GET_DESCRIPTOR(USB_CFG_DESCR_PROPS_DEVICE, usbDescriptorDevice)
    7666:	82 e1       	ldi	r24, 0x12	; 18

00007668 <.L39>:
    usbMsgFlags = flags;
    7668:	90 e4       	ldi	r25, 0x40	; 64

0000766a <.Loc.384>:
    766a:	90 93 3a 01 	sts	0x013A, r25	; 0x80013a <usbMsgFlags>

0000766e <.Loc.385>:
        if(replyLen == USB_NO_MSG){         /* use user-supplied read/write function */
    766e:	4a cf       	rjmp	.-364    	; 0x7504 <.L26>

00007670 <.L36>:
    SWITCH_CASE(USBDESCR_CONFIG)    /* 2 */
    7670:	92 30       	cpi	r25, 0x02	; 2
    7672:	19 f4       	brne	.+6      	; 0x767a <.L38>

00007674 <.Loc.391>:
        GET_DESCRIPTOR(USB_CFG_DESCR_PROPS_CONFIGURATION, usbDescriptorConfiguration)
    7674:	86 e8       	ldi	r24, 0x86	; 134
    7676:	90 e7       	ldi	r25, 0x70	; 112

00007678 <.Loc.396>:
    7678:	f2 cf       	rjmp	.-28     	; 0x765e <.L37>

0000767a <.L38>:
    SWITCH_CASE(USBDESCR_STRING)    /* 3 */
    767a:	93 30       	cpi	r25, 0x03	; 3
    767c:	a9 f7       	brne	.-22     	; 0x7668 <.L39>

0000767e <.LBB126>:
        SWITCH_CASE(0)
    767e:	21 11       	cpse	r18, r1
    7680:	08 c0       	rjmp	.+16     	; 0x7692 <.L40>

00007682 <.Loc.401>:
            GET_DESCRIPTOR(USB_CFG_DESCR_PROPS_STRING_0, usbDescriptorString0)
    7682:	84 ed       	ldi	r24, 0xD4	; 212
    7684:	90 e7       	ldi	r25, 0x70	; 112

00007686 <.Loc.406>:
    7686:	90 93 07 01 	sts	0x0107, r25	; 0x800107 <usbMsgPtr+0x1>
    768a:	80 93 06 01 	sts	0x0106, r24	; 0x800106 <usbMsgPtr>
    768e:	84 e0       	ldi	r24, 0x04	; 4
    7690:	eb cf       	rjmp	.-42     	; 0x7668 <.L39>

00007692 <.L40>:
        SWITCH_CASE(1)
    7692:	21 30       	cpi	r18, 0x01	; 1
    7694:	41 f4       	brne	.+16     	; 0x76a6 <.L41>

00007696 <.Loc.408>:
            GET_DESCRIPTOR(USB_CFG_DESCR_PROPS_STRING_VENDOR, usbDescriptorStringVendor)
    7696:	88 eb       	ldi	r24, 0xB8	; 184
    7698:	90 e7       	ldi	r25, 0x70	; 112

0000769a <.Loc.413>:
    769a:	90 93 07 01 	sts	0x0107, r25	; 0x800107 <usbMsgPtr+0x1>
    769e:	80 93 06 01 	sts	0x0106, r24	; 0x800106 <usbMsgPtr>
    76a2:	8c e1       	ldi	r24, 0x1C	; 28
    76a4:	e1 cf       	rjmp	.-62     	; 0x7668 <.L39>

000076a6 <.L41>:
        SWITCH_CASE(2)
    76a6:	22 30       	cpi	r18, 0x02	; 2
    76a8:	f9 f6       	brne	.-66     	; 0x7668 <.L39>

000076aa <.Loc.415>:
            GET_DESCRIPTOR(USB_CFG_DESCR_PROPS_STRING_PRODUCT, usbDescriptorStringDevice)
    76aa:	8a ea       	ldi	r24, 0xAA	; 170
    76ac:	90 e7       	ldi	r25, 0x70	; 112

000076ae <.Loc.420>:
    76ae:	90 93 07 01 	sts	0x0107, r25	; 0x800107 <usbMsgPtr+0x1>
    76b2:	80 93 06 01 	sts	0x0106, r24	; 0x800106 <usbMsgPtr>
    76b6:	8e e0       	ldi	r24, 0x0E	; 14
    76b8:	d7 cf       	rjmp	.-82     	; 0x7668 <.L39>

000076ba <.L35>:
    SWITCH_CASE(USBRQ_GET_CONFIGURATION)    /* 8 */
    76ba:	98 30       	cpi	r25, 0x08	; 8
    76bc:	59 f0       	breq	.+22     	; 0x76d4 <.L79>

000076be <.Loc.423>:
    SWITCH_CASE(USBRQ_SET_CONFIGURATION)    /* 9 */
    76be:	99 30       	cpi	r25, 0x09	; 9
    76c0:	19 f4       	brne	.+6      	; 0x76c8 <.L42>

000076c2 <.Loc.424>:
        usbConfiguration = value;
    76c2:	20 93 16 01 	sts	0x0116, r18	; 0x800116 <usbConfiguration>

000076c6 <.LBB130>:
}
    76c6:	c1 cf       	rjmp	.-126    	; 0x764a <.L43>

000076c8 <.L42>:
    SWITCH_CASE(USBRQ_GET_INTERFACE)        /* 10 */
    76c8:	81 e0       	ldi	r24, 0x01	; 1

000076ca <.Loc.431>:
    76ca:	9a 30       	cpi	r25, 0x0A	; 10
    76cc:	09 f4       	brne	.+2      	; 0x76d0 <L0^A+0x2>

000076ce <L0^A>:
    76ce:	bd cf       	rjmp	.-134    	; 0x764a <.L43>
    76d0:	80 e0       	ldi	r24, 0x00	; 0
    76d2:	bb cf       	rjmp	.-138    	; 0x764a <.L43>

000076d4 <.L79>:
        dataPtr = &usbConfiguration;  /* send current configuration value */
    76d4:	26 e1       	ldi	r18, 0x16	; 22
    76d6:	31 e0       	ldi	r19, 0x01	; 1

000076d8 <.Loc.433>:
        len = 1;
    76d8:	81 e0       	ldi	r24, 0x01	; 1

000076da <.Loc.434>:
    76da:	ae cf       	rjmp	.-164    	; 0x7638 <.L32>

000076dc <.L78>:
        len = (usbMsgLen_t)1;
    76dc:	81 e0       	ldi	r24, 0x01	; 1

000076de <.Loc.437>:
    76de:	12 cf       	rjmp	.-476    	; 0x7504 <.L26>

000076e0 <.L21>:
        if(usbMsgFlags & USB_FLG_USE_USER_RW){
    76e0:	80 91 3a 01 	lds	r24, 0x013A	; 0x80013a <usbMsgFlags>
    76e4:	87 ff       	sbrs	r24, 7
    76e6:	3a cf       	rjmp	.-396    	; 0x755c <.L23>

000076e8 <.LBB142>:
    if(len > bytesRemaining)
    76e8:	00 91 36 01 	lds	r16, 0x0136	; 0x800136 <bytesRemaining>

000076ec <.Loc.447>:
    76ec:	01 17       	cp	r16, r17
    76ee:	08 f4       	brcc	.+2      	; 0x76f2 <.L47>
    76f0:	10 2f       	mov	r17, r16

000076f2 <.L47>:
    bytesRemaining -= len;
    76f2:	01 1b       	sub	r16, r17
    76f4:	00 93 36 01 	sts	0x0136, r16	; 0x800136 <bytesRemaining>

000076f8 <.LVL109>:
    for(i = 0; i < len;) {
    76f8:	f1 2c       	mov	r15, r1

000076fa <.L48>:
    76fa:	f1 16       	cp	r15, r17
    76fc:	28 f0       	brcs	.+10     	; 0x7708 <.L57>

000076fe <.LVL111>:
            }else if(rval != 0){    /* This was the final package */
    76fe:	01 11       	cpse	r16, r1
    7700:	2d cf       	rjmp	.-422    	; 0x755c <.L23>

00007702 <.L51>:
                usbMsgLen = 0;  /* answer with a zero-sized data packet */
    7702:	10 92 00 01 	sts	0x0100, r1	; 0x800100 <usbMsgLen>
    7706:	2a cf       	rjmp	.-428    	; 0x755c <.L23>

00007708 <.L57>:
	eeprom_write_byte((void *)(currentAddress.w[0]++), *data++);
    7708:	80 91 37 01 	lds	r24, 0x0137	; 0x800137 <currentAddress>
    770c:	90 91 38 01 	lds	r25, 0x0138	; 0x800138 <currentAddress+0x1>

00007710 <.Loc.463>:
      if(currentRequest >= USBASP_FUNC_READEEPROM){
    7710:	20 91 34 01 	lds	r18, 0x0134	; 0x800134 <currentRequest>
    7714:	27 30       	cpi	r18, 0x07	; 7
    7716:	58 f0       	brcs	.+22     	; 0x772e <.L49>

00007718 <.Loc.464>:
	eeprom_write_byte((void *)(currentAddress.w[0]++), *data++);
    7718:	69 91       	ld	r22, Y+

0000771a <.Loc.466>:
    771a:	9c 01       	movw	r18, r24
    771c:	2f 5f       	subi	r18, 0xFF	; 255
    771e:	3f 4f       	sbci	r19, 0xFF	; 255
    7720:	30 93 38 01 	sts	0x0138, r19	; 0x800138 <currentAddress+0x1>
    7724:	20 93 37 01 	sts	0x0137, r18	; 0x800137 <currentAddress>

00007728 <.Loc.467>:
    7728:	9d d0       	rcall	.+314    	; 0x7864 <eeprom_write_byte>

0000772a <.LVL116>:
	i++;
    772a:	f3 94       	inc	r15

0000772c <.Loc.470>:
    772c:	e6 cf       	rjmp	.-52     	; 0x76fa <.L48>

0000772e <.L49>:
	if (CURRENT_ADDRESS >= (addr_t)(BOOTLOADER_PAGEADDR)) {
    772e:	81 15       	cp	r24, r1
    7730:	90 47       	sbci	r25, 0x70	; 112
    7732:	38 f7       	brcc	.-50     	; 0x7702 <.L51>

00007734 <.Loc.473>:
	i += 2;
    7734:	f3 94       	inc	r15
    7736:	f3 94       	inc	r15

00007738 <.Loc.475>:
	cli();
    7738:	f8 94       	cli

0000773a <.Loc.477>:
	boot_page_fill(CURRENT_ADDRESS, *(short *)data);
    773a:	e0 91 37 01 	lds	r30, 0x0137	; 0x800137 <currentAddress>
    773e:	f0 91 38 01 	lds	r31, 0x0138	; 0x800138 <currentAddress+0x1>
    7742:	28 81       	ld	r18, Y
    7744:	39 81       	ldd	r19, Y+1	; 0x01
    7746:	81 e0       	ldi	r24, 0x01	; 1
    7748:	09 01       	movw	r0, r18
    774a:	80 93 57 00 	sts	0x0057, r24	; 0x800057 <__TEXT_REGION_LENGTH__+0x7e0057>
    774e:	e8 95       	spm
    7750:	11 24       	eor	r1, r1

00007752 <.Loc.478>:
	sei();
    7752:	78 94       	sei

00007754 <.Loc.479>:
	CURRENT_ADDRESS += 2;
    7754:	80 91 37 01 	lds	r24, 0x0137	; 0x800137 <currentAddress>
    7758:	90 91 38 01 	lds	r25, 0x0138	; 0x800138 <currentAddress+0x1>
    775c:	02 96       	adiw	r24, 0x02	; 2
    775e:	90 93 38 01 	sts	0x0138, r25	; 0x800138 <currentAddress+0x1>
    7762:	80 93 37 01 	sts	0x0137, r24	; 0x800137 <currentAddress>

00007766 <.Loc.481>:
	if((currentAddress.w[0] & (SPM_PAGESIZE - 1)) == 0 || (isLast && i >= len && isLastPage)){
    7766:	8f 77       	andi	r24, 0x7F	; 127
    7768:	99 27       	eor	r25, r25

0000776a <.Loc.484>:
    776a:	89 2b       	or	r24, r25
    776c:	51 f0       	breq	.+20     	; 0x7782 <.L52>

0000776e <.Loc.485>:
    776e:	01 11       	cpse	r16, r1
    7770:	02 c0       	rjmp	.+4      	; 0x7776 <.L53>

00007772 <.Loc.486>:
    7772:	f1 16       	cp	r15, r17
    7774:	10 f4       	brcc	.+4      	; 0x777a <.L54>

00007776 <.L53>:
	data += 2;
    7776:	22 96       	adiw	r28, 0x02	; 2

00007778 <.Loc.488>:
    7778:	c0 cf       	rjmp	.-128    	; 0x76fa <.L48>

0000777a <.L54>:
	if((currentAddress.w[0] & (SPM_PAGESIZE - 1)) == 0 || (isLast && i >= len && isLastPage)){
    777a:	80 91 35 01 	lds	r24, 0x0135	; 0x800135 <isLastPage>
    777e:	81 15       	cp	r24, r1
    7780:	d1 f3       	breq	.-12     	; 0x7776 <.L53>

00007782 <.L52>:
	    cli();
    7782:	f8 94       	cli

00007784 <.Loc.492>:
	    boot_page_erase(CURRENT_ADDRESS - 2);   /* erase page */
    7784:	e0 91 37 01 	lds	r30, 0x0137	; 0x800137 <currentAddress>
    7788:	f0 91 38 01 	lds	r31, 0x0138	; 0x800138 <currentAddress+0x1>
    778c:	32 97       	sbiw	r30, 0x02	; 2
    778e:	83 e0       	ldi	r24, 0x03	; 3
    7790:	80 93 57 00 	sts	0x0057, r24	; 0x800057 <__TEXT_REGION_LENGTH__+0x7e0057>
    7794:	e8 95       	spm

00007796 <.Loc.493>:
	    sei();
    7796:	78 94       	sei

00007798 <.L55>:
	    boot_spm_busy_wait();                   /* wait until page is erased */
    7798:	07 b6       	in	r0, 0x37	; 55
    779a:	00 fc       	sbrc	r0, 0
    779c:	fd cf       	rjmp	.-6      	; 0x7798 <.L55>

0000779e <.Loc.497>:
	    cli();
    779e:	f8 94       	cli

000077a0 <.Loc.499>:
	    boot_page_write(CURRENT_ADDRESS - 2);
    77a0:	e0 91 37 01 	lds	r30, 0x0137	; 0x800137 <currentAddress>
    77a4:	f0 91 38 01 	lds	r31, 0x0138	; 0x800138 <currentAddress+0x1>
    77a8:	32 97       	sbiw	r30, 0x02	; 2
    77aa:	85 e0       	ldi	r24, 0x05	; 5
    77ac:	80 93 57 00 	sts	0x0057, r24	; 0x800057 <__TEXT_REGION_LENGTH__+0x7e0057>
    77b0:	e8 95       	spm

000077b2 <.Loc.500>:
	    sei();
    77b2:	78 94       	sei

000077b4 <.L56>:
	    boot_spm_busy_wait();
    77b4:	07 b6       	in	r0, 0x37	; 55
    77b6:	00 fc       	sbrc	r0, 0
    77b8:	fd cf       	rjmp	.-6      	; 0x77b4 <.L56>

000077ba <.Loc.504>:
	    cli();
    77ba:	f8 94       	cli

000077bc <.Loc.505>:
	    boot_rww_enable();
    77bc:	81 e1       	ldi	r24, 0x11	; 17
    77be:	80 93 57 00 	sts	0x0057, r24	; 0x800057 <__TEXT_REGION_LENGTH__+0x7e0057>
    77c2:	e8 95       	spm

000077c4 <.Loc.506>:
	    sei();
    77c4:	78 94       	sei
    77c6:	d7 cf       	rjmp	.-82     	; 0x7776 <.L53>

000077c8 <.L66>:
            *data = eeprom_read_byte((void *)currentAddress.w[0]);
    77c8:	00 91 37 01 	lds	r16, 0x0137	; 0x800137 <currentAddress>
    77cc:	10 91 38 01 	lds	r17, 0x0138	; 0x800138 <currentAddress+0x1>

000077d0 <.Loc.510>:
        if(currentRequest >= USBASP_FUNC_READEEPROM){
    77d0:	27 e0       	ldi	r18, 0x07	; 7
    77d2:	d2 16       	cp	r13, r18
    77d4:	68 f0       	brcs	.+26     	; 0x77f0 <.L64>

000077d6 <.Loc.511>:
            *data = eeprom_read_byte((void *)currentAddress.w[0]);
    77d6:	c8 01       	movw	r24, r16
    77d8:	3d d0       	rcall	.+122    	; 0x7854 <eeprom_read_byte>

000077da <.L65>:
    77da:	f7 01       	movw	r30, r14
    77dc:	81 93       	st	Z+, r24
    77de:	7f 01       	movw	r14, r30

000077e0 <.Loc.514>:
        CURRENT_ADDRESS++;
    77e0:	0f 5f       	subi	r16, 0xFF	; 255
    77e2:	1f 4f       	sbci	r17, 0xFF	; 255
    77e4:	10 93 38 01 	sts	0x0138, r17	; 0x800138 <currentAddress+0x1>
    77e8:	00 93 37 01 	sts	0x0137, r16	; 0x800137 <currentAddress>

000077ec <.Loc.517>:
    for(i = 0; i < len; i++){
    77ec:	df 5f       	subi	r29, 0xFF	; 255

000077ee <.Loc.518>:
    77ee:	e4 ce       	rjmp	.-568    	; 0x75b8 <.L63>

000077f0 <.L64>:
            *data = pgm_read_byte(CURRENT_ADDRESS);
    77f0:	f8 01       	movw	r30, r16
    77f2:	84 91       	lpm	r24, Z

000077f4 <.LVL127>:
    77f4:	f2 cf       	rjmp	.-28     	; 0x77da <.L65>

000077f6 <.L61>:
            usbMsgPtr_t r = usbMsgPtr;
    77f6:	90 91 06 01 	lds	r25, 0x0106	; 0x800106 <usbMsgPtr>
    77fa:	20 91 07 01 	lds	r18, 0x0107	; 0x800107 <usbMsgPtr+0x1>

000077fe <.LVL129>:
            if(usbMsgFlags & USB_FLG_MSGPTR_IS_ROM){    /* ROM data */
    77fe:	48 2f       	mov	r20, r24
    7800:	49 0f       	add	r20, r25

00007802 <.Loc.529>:
            usbMsgPtr_t r = usbMsgPtr;
    7802:	e9 2f       	mov	r30, r25
    7804:	f2 2f       	mov	r31, r18

00007806 <.Loc.530>:
            if(usbMsgFlags & USB_FLG_MSGPTR_IS_ROM){    /* ROM data */
    7806:	36 ff       	sbrs	r19, 6
    7808:	10 c0       	rjmp	.+32     	; 0x782a <.L80>
    780a:	29 e0       	ldi	r18, 0x09	; 9
    780c:	31 e0       	ldi	r19, 0x01	; 1

0000780e <.L68>:
                    uchar c = USB_READ_FLASH(r);    /* assign to char size variable to enforce byte ops */
    780e:	94 91       	lpm	r25, Z

00007810 <.LBE158>:
                    *data++ = c;
    7810:	d9 01       	movw	r26, r18

00007812 <.Loc.539>:
    7812:	9c 93       	st	X, r25
    7814:	2f 5f       	subi	r18, 0xFF	; 255
    7816:	3f 4f       	sbci	r19, 0xFF	; 255

00007818 <.Loc.540>:
                    r++;
    7818:	31 96       	adiw	r30, 0x01	; 1

0000781a <.LBE157>:
                }while(--i);
    781a:	4e 13       	cpse	r20, r30
    781c:	f8 cf       	rjmp	.-16     	; 0x780e <.L68>

0000781e <.L69>:
            usbMsgPtr = r;
    781e:	f0 93 07 01 	sts	0x0107, r31	; 0x800107 <usbMsgPtr+0x1>
    7822:	e0 93 06 01 	sts	0x0106, r30	; 0x800106 <usbMsgPtr>

00007826 <.Loc.547>:
    7826:	c8 2f       	mov	r28, r24
    7828:	c9 ce       	rjmp	.-622    	; 0x75bc <.L60>

0000782a <.L80>:
    782a:	29 e0       	ldi	r18, 0x09	; 9
    782c:	31 e0       	ldi	r19, 0x01	; 1

0000782e <.L67>:
                    *data++ = *((uchar *)r);
    782e:	d9 01       	movw	r26, r18

00007830 <.Loc.555>:
    7830:	91 91       	ld	r25, Z+

00007832 <.Loc.556>:
    7832:	9c 93       	st	X, r25
    7834:	2f 5f       	subi	r18, 0xFF	; 255
    7836:	3f 4f       	sbci	r19, 0xFF	; 255

00007838 <.Loc.557>:
                }while(--i);
    7838:	4e 13       	cpse	r20, r30
    783a:	f9 cf       	rjmp	.-14     	; 0x782e <.L67>
    783c:	f0 cf       	rjmp	.-32     	; 0x781e <.L69>

0000783e <.L73>:
	  if (bootLoaderConditionSimple()) {
    783e:	4c 99       	sbic	0x09, 4	; 9
    7840:	e1 ce       	rjmp	.-574    	; 0x7604 <.L74>

00007842 <.Loc.563>:
	    if (stayinloader > 1) stayinloader-=2;
    7842:	80 91 39 01 	lds	r24, 0x0139	; 0x800139 <stayinloader>

00007846 <.Loc.565>:
    7846:	82 30       	cpi	r24, 0x02	; 2
    7848:	08 f4       	brcc	.+2      	; 0x784c <.Loc.566>

0000784a <L0^A>:
    784a:	dc ce       	rjmp	.-584    	; 0x7604 <.L74>

0000784c <.Loc.566>:
    784c:	80 91 39 01 	lds	r24, 0x0139	; 0x800139 <stayinloader>
    7850:	82 50       	subi	r24, 0x02	; 2
    7852:	d6 ce       	rjmp	.-596    	; 0x7600 <.L115>

00007854 <eeprom_read_byte>:
    7854:	f9 99       	sbic	0x1f, 1	; 31
    7856:	fe cf       	rjmp	.-4      	; 0x7854 <eeprom_read_byte>
    7858:	92 bd       	out	0x22, r25	; 34
    785a:	81 bd       	out	0x21, r24	; 33
    785c:	f8 9a       	sbi	0x1f, 0	; 31
    785e:	99 27       	eor	r25, r25
    7860:	80 b5       	in	r24, 0x20	; 32
    7862:	08 95       	ret

00007864 <eeprom_write_byte>:
    7864:	26 2f       	mov	r18, r22

00007866 <eeprom_write_r18>:
    7866:	f9 99       	sbic	0x1f, 1	; 31
    7868:	fe cf       	rjmp	.-4      	; 0x7866 <eeprom_write_r18>
    786a:	1f ba       	out	0x1f, r1	; 31
    786c:	92 bd       	out	0x22, r25	; 34
    786e:	81 bd       	out	0x21, r24	; 33
    7870:	20 bd       	out	0x20, r18	; 32
    7872:	0f b6       	in	r0, 0x3f	; 63
    7874:	f8 94       	cli
    7876:	fa 9a       	sbi	0x1f, 2	; 31
    7878:	f9 9a       	sbi	0x1f, 1	; 31
    787a:	0f be       	out	0x3f, r0	; 63
    787c:	01 96       	adiw	r24, 0x01	; 1
    787e:	08 95       	ret

00007880 <_exit>:
    7880:	f8 94       	cli

00007882 <__stop_program>:
    7882:	ff cf       	rjmp	.-2      	; 0x7882 <__stop_program>
